  Sat Jan 23 2016 12:08                                                                                                    Page 1


                                               ***************************************
                                               **      WDC 65C816 Macro Assembler   **
                                               **                                   **
                                               **     Version 3.49.1- Feb  6 2006    **
                                               ***************************************

     1                        ;===============================================================================
     2                        ;  ______  ______        _   _            _
     3                        ; / ___\ \/ / __ )      | | | | __ _  ___| | _____ _ __
     4                        ; \___ \\  /|  _ \ _____| |_| |/ _` |/ __| |/ / _ \ '__|
     5                        ;  ___) /  \| |_) |_____|  _  | (_| | (__|   <  __/ |
     6                        ; |____/_/\_\____/      |_| |_|\__,_|\___|_|\_\___|_|
     7                        ;
     8                        ; A program for Hacking your W65C265SXB or W65C816SXB
     9                        ;-------------------------------------------------------------------------------
    10                        ; Copyright (C)2015 Andrew Jacobs
    11                        ; All rights reserved.
    12                        ;
    13                        ; This work is made available under the terms of the Creative Commons
    14                        ; Attribution-NonCommercial-ShareAlike 4.0 International license. Open the
    15                        ; following URL to see the details.
    16                        ;
    17                        ; http://creativecommons.org/licenses/by-nc-sa/4.0/
    18                        ;
    19                        ;===============================================================================
    20                        ; Notes:
    21                        ;
    22                        ; This program provides a simple monitor that you can use to inspect the memory
    23                        ; in your SXB and reprogram parts of the flash ROM.
    24                        ;
    25                        ;-------------------------------------------------------------------------------
    26                        
    27                                        pw      132
    28                                        inclist on
    29                        
    30                                        chip    65816
    31                        
    32                                        ifdef   W65C265SXB
    33                                        include "w65c265.inc"
     1                        ;===============================================================================
     2                        ; __        ____  ____   ____ ____   __  ____
     3                        ; \ \      / / /_| ___| / ___|___ \ / /_| ___|
     4                        ;  \ \ /\ / / '_ \___ \| |     __) | '_ \___ \
     5                        ;   \ V  V /| (_) |__) | |___ / __/| (_) |__) |
     6                        ;    \_/\_/  \___/____/ \____|_____|\___/____/
     7                        ;
     8                        ; Western Design Center W65C265 device definitions
     9                        ;-------------------------------------------------------------------------------
    10                        ; Copyright (C)2015 HandCoded Software Ltd.
    11                        ; All rights reserved.
    12                        ;
    13                        ; This work is made available under the terms of the Creative Commons
    14                        ; Attribution-NonCommercial-ShareAlike 4.0 International license. Open the
    15                        ; following URL to see the details.
    16                        ;
    17                        ; http://creativecommons.org/licenses/by-nc-sa/4.0/
    18                        ;
    19                        ;===============================================================================
  Sat Jan 23 2016 12:08                                                                                                    Page 2


    20                        ; Notes:
    21                        ;
    22                        ; Various macros and definitions for the W65C265 microcontroller.
    23                        ;
    24                        ;===============================================================================
    25                        ; Revision History:
    26                        ;
    27                        ; 2015-12-18 AJ Initial version
    28                        ;-------------------------------------------------------------------------------
    29                        ; $Id$
    30                        ;-------------------------------------------------------------------------------
    31                        
    32                        ;===============================================================================
    33                        ; Hardware Registers
    34                        ;-------------------------------------------------------------------------------
    35                        
    36                        ;00DF00-1F CS0 Port Replacement & Expansion uninitialized
    37                        
    38             0000DF00   PD0             equ     $00DF00         ; Port 0 Data Register
    39             0000DF01   PD1             equ     $00DF01         ; Port 1 Data Register
    40             0000DF02   PD2             equ     $00DF02         ; Port 2 Data Register
    41             0000DF03   PD3             equ     $00DF03         ; Port 3 Data Register
    42             0000DF04   PDD0            equ     $00DF04         ; Port 0 Data Direction Register
    43             0000DF05   PDD1            equ     $00DF05         ; Port 1 Data Direction Register
    44             0000DF06   PDD2            equ     $00DF06         ; Port 2 Data Direction Register
    45             0000DF07   PDD3            equ     $00DF07         ; Port 3 Data Direction Register
    46                        
    47             0000DF20   PD4             equ     $00DF20         ; Port 4 Data Register
    48             0000DF21   PD5             equ     $00DF21         ; Port 5 Data Register
    49             0000DF22   PD6             equ     $00DF22         ; Port 6 Data Register
    50             0000DF23   PD7             equ     $00DF23         ; Port 7 Data Register
    51             0000DF24   PDD4            equ     $00DF24         ; Port 4 Data Direction Register
    52             0000DF25   PDD5            equ     $00DF25         ; Port 5 Data Direction Register
    53             0000DF26   PDD6            equ     $00DF26         ; Port 6 Data Direction Register
    54             0000DF27   PCS7            equ     $00DF27         ; Port 7 Chip Select
    55                        
    56                        ;00DF28-3F --- Reserved uninitialized
    57                        
    58             0000DF40   BCR             equ     $00DF40         ; Bus Control Register
    59             0000DF41   SSCR            equ     $00DF41         ; System Speed Control Register
    60             0000DF42   TCR             equ     $00DF42         ; Timer Control Register
    61             0000DF43   TER             equ     $00DF43         ; Timer Enable Register
    62             0000DF44   TIFR            equ     $00DF44         ; Timer Interrupt Flag Register
    63             0000DF45   EIFR            equ     $00DF45         ; Edge Interrupt Flag Register
    64             0000DF46   TIER            equ     $00DF46         ; Timer Interrupt Enable Register
    65             0000DF47   EIER            equ     $00DF47         ; Edge Interrupt Enable Register
    66             0000DF48   UIFR            equ     $00DF48         ; UART Interrupt Flag Register
    67             0000DF49   UIER            equ     $00DF49         ; UART Interrupt Enable Register
    68                        
    69             0000DF50   T0LL            equ     $00DF50         ; Timer 0 Latch Low
    70             0000DF51   T0LH            equ     $00DF51         ; Timer 0 Latch High
    71             0000DF52   T1LL            equ     $00DF52         ; Timer 1 Latch Low
    72             0000DF53   T1LH            equ     $00DF53         ; Timer 1 Latch High
    73             0000DF54   T2LL            equ     $00DF54         ; Timer 2 Latch Low
    74             0000DF55   T2LH            equ     $00DF55         ; Timer 2 Latch High
    75             0000DF56   T3LL            equ     $00DF56         ; Timer 3 Latch Low
    76             0000DF57   T3LH            equ     $00DF57         ; Timer 3 Latch High
    77             0000DF58   T4LL            equ     $00DF58         ; Timer 4 Latch Low
  Sat Jan 23 2016 12:08                                                                                                    Page 3


    78             0000DF59   T4LH            equ     $00DF59         ; Timer 4 Latch High
    79             0000DF5A   T5LL            equ     $00DF5A         ; Timer 5 Latch Low
    80             0000DF5B   T5LH            equ     $00DF5B         ; Timer 5 Latch High
    81             0000DF5C   T6LL            equ     $00DF5C         ; Timer 6 Latch Low
    82             0000DF5D   T6LH            equ     $00DF5D         ; Timer 6 Latch High
    83             0000DF5E   T7LL            equ     $00DF5E         ; Timer 7 Latch Low
    84             0000DF5F   T7LH            equ     $00DF5F         ; Timer 7 Latch High
    85             0000DF60   T0CL            equ     $00DF60         ; Timer 0 Counter Low
    86             0000DF61   T0CH            equ     $00DF61         ; Timer 0 Counter High
    87             0000DF62   T1CL            equ     $00DF62         ; Timer 1 Counter Low
    88             0000DF63   T1CH            equ     $00DF63         ; Timer 1 Counter High
    89             0000DF64   T2CL            equ     $00DF64         ; Timer 2 Counter Low
    90             0000DF65   T2CH            equ     $00DF65         ; Timer 2 Counter High
    91             0000DF66   T3CL            equ     $00DF66         ; Timer 3 Counter Low
    92             0000DF67   T3CH            equ     $00DF67         ; Timer 3 Counter High
    93             0000DF68   T4CL            equ     $00DF68         ; Timer 4 Counter Low
    94             0000DF69   T4CH            equ     $00DF69         ; Timer 4 Counter High
    95             0000DF6A   T5CL            equ     $00DF6A         ; Timer 5 Counter Low
    96             0000DF6B   T5CH            equ     $00DF6B         ; Timer 5 Counter High
    97             0000DF6C   T6CL            equ     $00DF6C         ; Timer 6 Counter Low
    98             0000DF6D   T6CH            equ     $00DF6D         ; Timer 6 Counter High
    99             0000DF6E   T7CL            equ     $00DF6E         ; Timer 7 Counter Low
   100             0000DF6F   T7CH            equ     $00DF6F         ; Timer 7 Counter High
   101                        
   102                        ;00DFC0-FF CS1 COProcessor Expansion uninitialized
   103                        
   104             0000DF70   ACSR0           equ     $00DF70         ; UART 0 Control/Status Register
   105             0000DF71   ARTD0           equ     $00DF71         ; UART 0 Data Register
   106             0000DF72   ACSR1           equ     $00DF72         ; UART 1 Control/Status Register
   107             0000DF73   ARTD1           equ     $00DF73         ; UART 1 Data Register
   108             0000DF74   ACSR2           equ     $00DF74         ; UART 2 Control/Status Register
   109             0000DF75   ARTD2           equ     $00DF75         ; UART 2 Data Register
   110             0000DF76   ACSR3           equ     $00DF76         ; UART 3 Control/Status Register
   111             0000DF77   ARTD3           equ     $00DF77         ; UART 3 Data Register
   112             0000DF78   PIBFR           equ     $00DF78         ; Parallel Interface Flag Register
   113             0000DF79   PIBER           equ     $00DF79         ; Parallel Interface Enable Register
   114             0000DF7A   PIR2            equ     $00DF7A         ; Parallel Interface Register 2
   115             0000DF7B   PIR3            equ     $00DF7B         ; Parallel Interface Register 3
   116             0000DF7C   PIR4            equ     $00DF7C         ; Parallel Interface Register 4
   117             0000DF7D   PIR5            equ     $00DF7D         ; Parallel Interface Register 5
   118             0000DF7E   PIR6            equ     $00DF7E         ; Parallel Interface Register 6
   119             0000DF7F   PIR7            equ     $00DF7F         ; Parallel Interface Register 7
   120                        
   121                        ;00DF80-BF RAM RAM Registers uninitialized
   122                        
   123                                        include "w65c816.inc"
     1                        ;==============================================================================
     2                        ; __        ____  ____   ____ ___  _  __   
     3                        ; \ \      / / /_| ___| / ___( _ )/ |/ /_  
     4                        ;  \ \ /\ / / '_ \___ \| |   / _ \| | '_ \ 
     5                        ;   \ V  V /| (_) |__) | |__| (_) | | (_) |
     6                        ;    \_/\_/  \___/____/ \____\___/|_|\___/ 
     7                        ;
     8                        ; Western Design Center W65C816 device definitions                                          
     9                        ;------------------------------------------------------------------------------
    10                        ; Copyright (C)2015 HandCoded Software Ltd.
    11                        ; All rights reserved.
    12                        ;
  Sat Jan 23 2016 12:08                                                                                                    Page 4


    13                        ; This work is made available under the terms of the Creative Commons
    14                        ; Attribution-NonCommercial-ShareAlike 4.0 International license. Open the
    15                        ; following URL to see the details.
    16                        ;
    17                        ; http://creativecommons.org/licenses/by-nc-sa/4.0/
    18                        ;
    19                        ;===============================================================================
    20                        ; Notes:
    21                        ;
    22                        ; Various macros and definitions for the W65C816 microprocessor.
    23                        ;
    24                        ;===============================================================================
    25                        ; Revision History:
    26                        ;
    27                        ; 2015-12-18 AJ Initial version
    28                        ;-------------------------------------------------------------------------------
    29                        ; $Id$
    30                        ;-------------------------------------------------------------------------------
    31                        
    32                        ;==============================================================================
    33                        ; Status Register Bits
    34                        ;------------------------------------------------------------------------------
    35                        
    36             00000080   N_FLAG          equ     1<<7
    37             00000040   V_FLAG          equ     1<<6
    38             00000020   M_FLAG          equ     1<<5
    39             00000010   X_FLAG          equ     1<<4
    40             00000010   B_FLAG          equ     1<<4
    41             00000008   D_FLAG          equ     1<<3
    42             00000004   I_FLAG          equ     1<<2
    43             00000002   Z_FLAG          equ     1<<1
    44             00000001   C_FLAG          equ     1<<0
    45                        
    46                        ;==============================================================================
    47                        ; Macros
    48                        ;------------------------------------------------------------------------------
    49                        
    50                        ; Puts the processor in emulation mode. A, X and Y become 8-bits and the stack
    51                        ; is fixed at $0100-$01ff. 
    52                        
    53                        emulate         macro
    54                                        sec
    55                                        xce
    56                                        endm
    57                        
    58                        ; Puts the processor in native mode. The size of the memory and index register
    59                        ; operations is not controlled by the M & X bits in the status register.
    60                        
    61                        native          macro
    62                                        clc
    63                                        xce
    64                                        endm
    65                        
    66                        ; Resets the M bit making the accumulator and memory accesses 16-bits wide.
    67                         
    68                        long_a          macro
    69                                        rep     #M_FLAG
    70                                        longa   on
  Sat Jan 23 2016 12:08                                                                                                    Page 5


    71                                        endm
    72                        
    73                        ; Resets the X bit making the index registers 16-bits wide
    74                        
    75                        long_i          macro
    76                                        rep     #X_FLAG
    77                                        longi   on
    78                                        endm
    79                        
    80                        ; Resets the M and X bits making the accumulator, memory accesses and index
    81                        ; registers 16-bits wide.
    82                                        
    83                        long_ai         macro
    84                                        rep     #M_FLAG|X_FLAG
    85                                        longa   on
    86                                        longi   on
    87                                        endm
    88                        
    89                        ; Sets the M bit making the accumulator and memory accesses 8-bits wide.
    90                        
    91                        short_a         macro
    92                                        sep     #M_FLAG
    93                                        longa   off
    94                                        endm
    95                        
    96                        ; Sets the X bit making the index registers 8-bits wide.
    97                        
    98                        short_i         macro
    99                                        sep     #X_FLAG
   100                                        longi   off
   101                                        endm
   102                                        
   103                        ; Sets the M & X bits making the accumulator, memory accesses and index
   104                        ; registers 8-bits wide.
   105                        
   106                        short_ai        macro
   107                                        sep     #M_FLAG|X_FLAG
   108                                        longa   off
   109                                        longi   off
   110                                        endm
    34                                        else
    35                                        include "w65c816.inc"
    36                                        endif
    37                        
    38                        ;===============================================================================
    39                        ;-------------------------------------------------------------------------------
    40                        
    41                        MNEM            macro   P,Q,R
    42                                        dw      ((((P-'@')<<5)|(Q-'@'))<<5)|(R-'@')
    43                                        endm
    44                        
    45                        ;===============================================================================
    46                        ; ASCII Character Codes
    47                        ;-------------------------------------------------------------------------------
    48                        
    49             00000001   SOH             equ     $01
    50             00000004   EOT             equ     $04
    51             00000006   ACK             equ     $06
  Sat Jan 23 2016 12:08                                                                                                    Page 6


    52             00000007   BEL             equ     $07
    53             00000008   BS              equ     $08
    54             0000000A   LF              equ     $0a
    55             0000000D   CR              equ     $0d
    56             00000015   NAK             equ     $15
    57             00000018   CAN             equ     $18
    58             0000001B   ESC             equ     $1b
    59             0000007F   DEL             equ     $7f
    60                        
    61                        ;===============================================================================
    62                        ;-------------------------------------------------------------------------------
    63                        
    64             00000000   OP_ADC          equ     0<<1
    65             00000002   OP_AND          equ     1<<1
    66             00000004   OP_ASL          equ     2<<1
    67             00000006   OP_BCC          equ     3<<1
    68             00000008   OP_BCS          equ     4<<1
    69             0000000A   OP_BEQ          equ     5<<1
    70             0000000C   OP_BIT          equ     6<<1
    71             0000000E   OP_BMI          equ     7<<1
    72             00000010   OP_BNE          equ     8<<1
    73             00000012   OP_BPL          equ     9<<1
    74             00000014   OP_BRA          equ     10<<1
    75             00000016   OP_BRK          equ     11<<1
    76             00000018   OP_BRL          equ     12<<1
    77             0000001A   OP_BVC          equ     13<<1
    78             0000001C   OP_BVS          equ     14<<1
    79             0000001E   OP_CLC          equ     15<<1
    80             00000020   OP_CLD          equ     16<<1
    81             00000022   OP_CLI          equ     17<<1
    82             00000024   OP_CLV          equ     18<<1
    83             00000026   OP_CMP          equ     19<<1
    84             00000028   OP_COP          equ     20<<1
    85             0000002A   OP_CPX          equ     21<<1
    86             0000002C   OP_CPY          equ     22<<1
    87             0000002E   OP_DEC          equ     23<<1
    88             00000030   OP_DEX          equ     24<<1
    89             00000032   OP_DEY          equ     25<<1
    90             00000034   OP_EOR          equ     26<<1
    91             00000036   OP_INC          equ     27<<1
    92             00000038   OP_INX          equ     28<<1
    93             0000003A   OP_INY          equ     29<<1
    94             0000003C   OP_JML          equ     30<<1
    95             0000003E   OP_JMP          equ     31<<1
    96             00000040   OP_JSL          equ     32<<1
    97             00000042   OP_JSR          equ     33<<1
    98             00000044   OP_LDA          equ     34<<1
    99             00000046   OP_LDX          equ     35<<1
   100             00000048   OP_LDY          equ     36<<1
   101             0000004A   OP_LSR          equ     37<<1
   102             0000004C   OP_MVN          equ     38<<1
   103             0000004E   OP_MVP          equ     39<<1
   104             00000050   OP_NOP          equ     40<<1
   105             00000052   OP_ORA          equ     41<<1
   106             00000054   OP_PEA          equ     42<<1
   107             00000056   OP_PEI          equ     43<<1
   108             00000058   OP_PER          equ     44<<1
   109             0000005A   OP_PHA          equ     45<<1
  Sat Jan 23 2016 12:08                                                                                                    Page 7


   110             0000005C   OP_PHB          equ     46<<1
   111             0000005E   OP_PHD          equ     47<<1
   112             00000060   OP_PHK          equ     48<<1
   113             00000062   OP_PHP          equ     49<<1
   114             00000064   OP_PHX          equ     50<<1
   115             00000066   OP_PHY          equ     51<<1
   116             00000068   OP_PLA          equ     52<<1
   117             0000006A   OP_PLB          equ     53<<1
   118             0000006C   OP_PLD          equ     54<<1
   119             0000006E   OP_PLP          equ     55<<1
   120             00000070   OP_PLX          equ     56<<1
   121             00000072   OP_PLY          equ     57<<1
   122             00000074   OP_REP          equ     58<<1
   123             00000076   OP_ROL          equ     59<<1
   124             00000078   OP_ROR          equ     60<<1
   125             0000007A   OP_RTI          equ     61<<1
   126             0000007C   OP_RTL          equ     62<<1
   127             0000007E   OP_RTS          equ     63<<1
   128             00000080   OP_SBC          equ     64<<1
   129             00000082   OP_SEC          equ     65<<1
   130             00000084   OP_SED          equ     66<<1
   131             00000086   OP_SEI          equ     67<<1
   132             00000088   OP_SEP          equ     68<<1
   133             0000008A   OP_STA          equ     69<<1
   134             0000008C   OP_STP          equ     70<<1
   135             0000008E   OP_STX          equ     71<<1
   136             00000090   OP_STY          equ     72<<1
   137             00000092   OP_STZ          equ     73<<1
   138             00000094   OP_TAX          equ     74<<1
   139             00000096   OP_TAY          equ     75<<1
   140             00000098   OP_TCD          equ     76<<1
   141             0000009A   OP_TCS          equ     77<<1
   142             0000009C   OP_TDC          equ     78<<1
   143             0000009E   OP_TRB          equ     79<<1
   144             000000A0   OP_TSB          equ     80<<1
   145             000000A2   OP_TSC          equ     81<<1
   146             000000A4   OP_TSX          equ     82<<1
   147             000000A6   OP_TXA          equ     83<<1
   148             000000A8   OP_TXS          equ     84<<1
   149             000000AA   OP_TXY          equ     85<<1
   150             000000AC   OP_TYA          equ     86<<1
   151             000000AE   OP_TYX          equ     87<<1
   152             000000B0   OP_WAI          equ     88<<1
   153             000000B2   OP_WDM          equ     89<<1
   154             000000B4   OP_XBA          equ     90<<1
   155             000000B6   OP_XCE          equ     91<<1
   156                        
   157             00000000   MD_ABS          equ     0<<1                    ; a
   158             00000002   MD_ACC          equ     1<<1                    ; A
   159             00000004   MD_ABX          equ     2<<1                    ; a,x
   160             00000006   MD_ABY          equ     3<<1                    ; a,y
   161             00000008   MD_ALG          equ     4<<1                    ; al
   162             0000000A   MD_ALX          equ     5<<1                    ; al,x
   163             0000000C   MD_AIN          equ     6<<1                    ; (a)
   164             0000000E   MD_AIX          equ     7<<1                    ; (a,x)
   165             00000010   MD_DPG          equ     8<<1                    ; d
   166             00000012   MD_STK          equ     9<<1                    ; d,s
   167             00000014   MD_DPX          equ     10<<1                   ; d,x
  Sat Jan 23 2016 12:08                                                                                                    Page 8


   168             00000016   MD_DPY          equ     11<<1                   ; d,x
   169             00000018   MD_DIN          equ     12<<1                   ; (d)
   170             0000001A   MD_DLI          equ     13<<1                   ; [d]
   171             0000001C   MD_SKY          equ     14<<1                   ; (d,s),y
   172             0000001E   MD_DIX          equ     15<<1                   ; (d,x)
   173             00000020   MD_DIY          equ     16<<1                   ; (d),y
   174             00000022   MD_DLY          equ     17<<1                   ; [d],y
   175             00000024   MD_IMP          equ     18<<1                   ;
   176             00000026   MD_REL          equ     19<<1                   ; r
   177             00000028   MD_RLG          equ     20<<1                   ; rl
   178             0000002A   MD_MOV          equ     21<<1                   ; xyc
   179             0000002C   MD_IMM          equ     22<<1                   ; # (A or M)
   180             0000002E   MD_INT          equ     23<<1                   ; # (BRK/COP/WDM)
   181             00000030   MD_IMX          equ     24<<1                   ; # (X or Y)
   182                        
   183                        ;===============================================================================
   184                        ; Data Areas
   185                        ;-------------------------------------------------------------------------------
   186                        
   187                                        page0
   188                                        org     $20
   189                        
   190 00:0020:              FLAGS           ds      1                       ; Emulated processor flags
   191 00:0021:              BUFLEN          ds      1                       ; Command buffer length
   192 00:0022:              BANK            ds      1                       ; Memory bank
   193                        
   194 00:0023:              ADDR_S          ds      3                       ; Start address
   195 00:0026:              ADDR_E          ds      3                       ; End address
   196                        
   197 00:0029:              BLOCK           ds      1                       ; XMODEM block number
   198 00:002A:              RETRIES         ds      1                       ; Retry count
   199 00:002B:              SUM             ds      1                       ; Checksum
   200                        
   201 00:002C:              TEMP            ds      4                       ; Scratch workspace
   202                        
   203                                        data
   204                                        org     $200
   205                        
   206 00:0200:              BUFFER          ds      128                     ; Command buffer
   207                        
   208                        ;===============================================================================
   209                        ; Initialisation
   210                        ;-------------------------------------------------------------------------------
   211                        
   212                                        code
   213                                        public  Start
   214                                        extern  UartRx
   215                                        extern  UartTx
   216                                        extern  UartRxTest
   217                                        extern  RomSelect
   218                                        extern  RomCheck
   219                        Start:
   220                                        short_a                         ; Configure register sizes
+  220 00:0000: E2 20                        sep     #M_FLAG
+  220                                        longa   off
   221                                        long_i
+  221 00:0002: C2 10                        rep     #X_FLAG
+  221                                        longi   on
  Sat Jan 23 2016 12:08                                                                                                    Page 9


   222 00:0004: 20 xx xx                     jsr     TxCRLF
   223 00:0007: A2 xx xx                     ldx     #TITLE                  ; Display application title
   224 00:000A: 20 xx xx                     jsr     TxStr
   225                        
   226 00:000D: 64 22                        stz     BANK                    ; Reset default bank
   227                        
   228                        ;===============================================================================
   229                        ; Command Processor
   230                        ;-------------------------------------------------------------------------------
   231                        
   232                        NewCommand:
   233 00:000F: 64 21                        stz     BUFLEN                  ; Clear the buffer
   234                        ShowCommand:
   235                                        short_i
+  235 00:0011: E2 10                        sep     #X_FLAG
+  235                                        longi   off
   236 00:0013: 20 xx xx                     jsr     TxCRLF                  ; Move to a new line
   237                        
   238 00:0016: A9 2E                        lda     #'.'                    ; Output the prompt
   239 00:0018: 20 xx xx                     jsr     UartTx
   240                        
   241 00:001B: A2 00                        ldx     #0
   242 00:001D: E4 21        DisplayCmd:     cpx     BUFLEN                  ; Any saved characters
   243 00:001F: F0 0E                        beq     ReadCommand
   244 00:0021: BD 00 02                     lda     BUFFER,x                ; Yes, display them
   245 00:0024: 20 xx xx                     jsr     UartTx
   246 00:0027: E8                           inx
   247 00:0028: 80 F3                        bra     DisplayCmd
   248                        
   249                        RingBell:
   250 00:002A: A9 07                        lda     #BEL                    ; Make a beep
   251 00:002C: 20 xx xx                     jsr     UartTx
   252                        
   253                        ReadCommand:
   254 00:002F: 20 xx xx                     jsr     UartRx                  ; Wait for character
   255                        
   256 00:0032: C9 1B                        cmp     #ESC                    ; Cancel input?
   257 00:0034: F0 D9                        beq     NewCommand              ; Yes, clear and restart
   258 00:0036: C9 0D                        cmp     #CR                     ; End of command?
   259 00:0038: F0 2D                        beq     ProcessCommand          ; Yes, start processing
   260                        
   261 00:003A: C9 08                        cmp     #BS                     ; Back space?
   262 00:003C: F0 15                        beq     BackSpace
   263 00:003E: C9 7F                        cmp     #DEL                    ; Delete?
   264 00:0040: F0 11                        beq     BackSpace
   265                        
   266 00:0042: C9 20                        cmp     #' '                    ; Printable character
   267 00:0044: 90 E4                        bcc     RingBell                ; No.
   268 00:0046: C9 7F                        cmp     #DEL
   269 00:0048: B0 E0                        bcs     RingBell                ; No.
   270 00:004A: 9D 00 02                     sta     BUFFER,x                ; Save the character
   271 00:004D: E8                           inx
   272 00:004E: 20 xx xx                     jsr     UartTx                  ; Echo it and repeat
   273 00:0051: 80 DC                        bra     ReadCommand
   274                        
   275                        BackSpace:
   276 00:0053: E0 00                        cpx     #0                      ; Buffer empty?
   277 00:0055: F0 D3                        beq     RingBell                ; Yes, beep and continue
  Sat Jan 23 2016 12:08                                                                                                    Page 10


   278 00:0057: CA                           dex                             ; No, remove last character
   279 00:0058: A9 08                        lda     #BS
   280 00:005A: 20 xx xx                     jsr     UartTx
   281 00:005D: 20 xx xx                     jsr     TxSpace
   282 00:0060: A9 08                        lda     #BS
   283 00:0062: 20 xx xx                     jsr     UartTx
   284 00:0065: 80 C8                        bra     ReadCommand             ; And retry
   285                        
   286                        ProcessCommand:
   287 00:0067: 86 21                        stx     BUFLEN                  ; Save final length
   288 00:0069: A0 00                        ldy     #0                      ; Load index for start
   289                        
   290 00:006B: 20 xx xx                     jsr     SkipSpaces              ; Fetch command character
   291 00:006E: B0 9F                        bcs     NewCommand              ; None, empty command
   292                        
   293                        ;===============================================================================
   294                        ; B - Select Memory Bank
   295                        ;-------------------------------------------------------------------------------
   296                        
   297 00:0070: C9 42                        cmp     #'B'                    ; Select memory bank?
   298 00:0072: D0 0D                        bne     NotMemoryBank
   299                        
   300 00:0074: A2 22                        ldx     #BANK                   ; Parse bank
   301 00:0076: 20 xx xx                     jsr     GetByte
   302 00:0079: 90 03                        bcc     $+5
   303 00:007B: 4C xx xx                     jmp     ShowError
   304 00:007E: 4C xx xx                     jmp     NewCommand
   305                        NotMemoryBank:
   306                        
   307                        ;===============================================================================
   308                        ; D - Disassemble Memory
   309                        ;-------------------------------------------------------------------------------
   310                        
   311 00:0081: C9 44                        cmp     #'D'                    ; Memory display?
   312 00:0083: D0 52                        bne     NotDisassemble
   313                        
   314 00:0085: A2 23                        ldx     #ADDR_S                 ; Parse start address
   315 00:0087: 20 xx xx                     jsr     GetAddr
   316 00:008A: 90 03                        bcc     $+5
   317 00:008C: 4C xx xx                     jmp     ShowError
   318 00:008F: A2 26                        ldx     #ADDR_E                 ; Parse end address
   319 00:0091: 20 xx xx                     jsr     GetAddr
   320 00:0094: 90 03                        bcc     $+5
   321 00:0096: 4C xx xx                     jmp     ShowError
   322                        
   323 00:0099: 08                           php
   324 00:009A: 68                           pla
   325 00:009B: 85 20                        sta     FLAGS
   326                        
   327                        Disassemble:
   328 00:009D: 20 xx xx                     jsr     TxCRLF
   329 00:00A0: A5 25                        lda     ADDR_S+2                ; Show memory address
   330 00:00A2: 20 xx xx                     jsr     TxHex2
   331 00:00A5: A9 3A                        lda     #':'
   332 00:00A7: 20 xx xx                     jsr     UartTx
   333 00:00AA: A5 24                        lda     ADDR_S+1
   334 00:00AC: 20 xx xx                     jsr     TxHex2
   335 00:00AF: A5 23                        lda     ADDR_S+0
  Sat Jan 23 2016 12:08                                                                                                    Page 11


   336 00:00B1: 20 xx xx                     jsr     TxHex2
   337 00:00B4: 20 xx xx                     jsr     TxSpace
   338                        
   339 00:00B7: 20 xx xx                     jsr     TxCodeBytes             ; Show code bytes
   340 00:00BA: 20 xx xx                     jsr     TxSymbolic              ; And instruction
   341                        
   342 00:00BD: A7 23                        lda     [ADDR_S]                ; Fetch opcode again
   343 00:00BF: 20 xx xx                     jsr     OpcodeSize
   344                        
   345 00:00C2: 18                           clc
   346 00:00C3: 65 23                        adc     ADDR_S+0                ; And move start address on
   347 00:00C5: 85 23                        sta     ADDR_S+0
   348 00:00C7: 90 02                        bcc     $+4
   349 00:00C9: E6 24                        inc     ADDR_S+1
   350                        
   351 00:00CB: 38                           sec                             ; Exceeded the end address?
   352 00:00CC: E5 26                        sbc     ADDR_E+0
   353 00:00CE: A5 24                        lda     ADDR_S+1
   354 00:00D0: E5 27                        sbc     ADDR_E+1
   355 00:00D2: 30 C9                        bmi     Disassemble             ; No, show more
   356                        
   357 00:00D4: 4C xx xx                     jmp     NewCommand              ; Done
   358                        NotDisassemble:
   359                        
   360                        ;===============================================================================
   361                        ; E - Erase ROM bank
   362                        ;-------------------------------------------------------------------------------
   363                        
   364 00:00D7: C9 45                        cmp     #'E'                    ; Erase bank?
   365 00:00D9: D0 52                        bne     NotEraseBank
   366                        
   367 00:00DB: 20 xx xx                     jsr     CheckSafe
   368                        
   369                                        ifdef   W65C265SXB
   370 00:00DE: AD 40 DF                     lda     BCR                     ; Save mask rom state
   371 00:00E1: 48                           pha
   372 00:00E2: A9 80                        lda     #$80                    ; Then ensure disabled
   373 00:00E4: 0C 40 DF                     tsb     BCR
   374                                        endif
   375                        
   376 00:00E7: A9 00                        lda     #$00                    ; Set start address
   377 00:00E9: 85 23                        sta     ADDR_S+0
   378 00:00EB: A9 80                        lda     #$80
   379 00:00ED: 85 24                        sta     ADDR_S+1
   380                        EraseLoop:
   381 00:00EF: A9 AA                        lda     #$aa                    ; Unlock flash
   382 00:00F1: 8D 55 D5                     sta     $8000+$5555
   383 00:00F4: A9 55                        lda     #$55
   384 00:00F6: 8D AA AA                     sta     $8000+$2aaa
   385 00:00F9: A9 80                        lda     #$80                    ; Signal erase
   386 00:00FB: 8D 55 D5                     sta     $8000+$5555
   387 00:00FE: A9 AA                        lda     #$aa
   388 00:0100: 8D 55 D5                     sta     $8000+$5555
   389 00:0103: A9 55                        lda     #$55
   390 00:0105: 8D AA AA                     sta     $8000+$2aaa
   391 00:0108: A9 30                        lda     #$30                    ; Sector erase
   392 00:010A: 92 23                        sta     (ADDR_S)
   393                        
  Sat Jan 23 2016 12:08                                                                                                    Page 12


   394                        EraseWait:
   395 00:010C: B2 23                        lda     (ADDR_S)                ; Wait for erase to finish
   396 00:010E: C9 FF                        cmp     #$FF
   397 00:0110: D0 FA                        bne     EraseWait
   398                        
   399 00:0112: 18                           clc                             ; Move to next sector
   400 00:0113: A5 24                        lda     ADDR_S+1
   401 00:0115: 69 10                        adc     #$10
   402 00:0117: 85 24                        sta     ADDR_S+1
   403 00:0119: 90 D4                        bcc     EraseLoop               ; Repeat until end of memory
   404                        
   405                                        ifdef   W65C265SXB
   406 00:011B: 68                           pla                             ; Restore mask ROM state
   407 00:011C: 8D 40 DF                     sta     BCR
   408                                        endif
   409                        
   410 00:011F: 4C xx xx                     jmp     NewCommand              ; And start over
   411                        
   412                        EraseFailed:
   413                                        long_i                          ; Warn that erase failed
+  413 00:0122: C2 10                        rep     #X_FLAG
+  413                                        longi   on
   414 00:0124: A2 xx xx                     ldx     #ERASE_FAILED
   415 00:0127: 20 xx xx                     jsr     TxStr
   416                                        longi   off
   417 00:012A: 4C xx xx                     jmp     NewCommand              ; And start over
   418                        NotEraseBank:
   419                        
   420                        ;===============================================================================
   421                        ; F - WDC Mask ROM Enable/Disable
   422                        ;-------------------------------------------------------------------------------
   423                        
   424                                        ifdef   W65C265SXB
   425 00:012D: C9 46                        cmp     #'F'
   426 00:012F: D0 20                        bne     NotMaskROM
   427                        
   428 00:0131: 20 xx xx                     jsr     SkipSpaces              ; Find first argument
   429 00:0134: B0 08                        bcs     MaskFail                ; Success?
   430                        
   431 00:0136: C9 30                        cmp     #'0'                    ; Check bank is 0..3
   432 00:0138: F0 0F                        beq     MaskOff
   433 00:013A: C9 31                        cmp     #'1'
   434 00:013C: F0 03                        beq     MaskOn
   435                        MaskFail:
   436 00:013E: 4C xx xx                     jmp     ShowError
   437                        
   438                        MaskOn:
   439 00:0141: A9 80                        lda     #$80                    ; Enable mask ROM
   440 00:0143: 1C 40 DF                     trb     BCR
   441 00:0146: 4C xx xx                     jmp     NewCommand
   442                        
   443                        MaskOff:
   444 00:0149: A9 80                        lda     #$80                    ; Disable mask ROM
   445 00:014B: 0C 40 DF                     tsb     BCR
   446 00:014E: 4C xx xx                     jmp     NewCommand
   447                        
   448                        NotMaskROM:
   449                                        endif
  Sat Jan 23 2016 12:08                                                                                                    Page 13


   450                        
   451                        ;===============================================================================
   452                        ; G - Goto
   453                        ;-------------------------------------------------------------------------------
   454                        
   455 00:0151: C9 47                        cmp     #'G'                    ; Invoke code
   456 00:0153: D0 0D                        bne     NotGoto
   457                        
   458 00:0155: A2 23                        ldx     #ADDR_S                 ; Parse execution address
   459 00:0157: 20 xx xx                     jsr     GetAddr
   460 00:015A: B0 03                        bcs     $+5
   461 00:015C: DC 23 00                     jmp     [ADDR_S]                ; Run from address
   462 00:015F: 6C FC FF                     jmp     ($FFFC)                 ; Otherwise reset
   463                        NotGoto:
   464                        
   465                        ;===============================================================================
   466                        ; H - Hunt for RAM
   467                        ;-------------------------------------------------------------------------------
   468                        
   469 00:0162: C9 48                        cmp     #'H'                    ; Hunt for RAM
   470 00:0164: F0 03                        beq     $+5
   471 00:0166: 4C xx xx                     jmp     NotHunt
   472                        
   473 00:0169: 64 23                        stz     ADDR_S+0                ; Start at $00:0000
   474 00:016B: 64 24                        stz     ADDR_S+1
   475 00:016D: 64 25                        stz     ADDR_S+2
   476                        
   477                        HuntStart:
   478 00:016F: A7 23                        lda     [ADDR_S]                ; Is byte is writeable?
   479 00:0171: 49 FF                        eor     #$ff
   480 00:0173: 87 23                        sta     [ADDR_S]
   481 00:0175: EA                           nop
   482 00:0176: EA                           nop
   483 00:0177: C7 23                        cmp     [ADDR_S]
   484 00:0179: F0 10                        beq     HuntFound               ; Yes
   485                        
   486 00:017B: 18                           clc                             ; Try the next block
   487 00:017C: A5 24                        lda     ADDR_S+1
   488 00:017E: 69 10                        adc     #$10
   489 00:0180: 85 24                        sta     ADDR_S+1
   490 00:0182: 90 EB                        bcc     HuntStart
   491 00:0184: E6 25                        inc     ADDR_S+2
   492 00:0186: D0 E7                        bne     HuntStart
   493 00:0188: 4C xx xx                     jmp     NewCommand              ; Reached end of RAM
   494                        
   495                        HuntFound:
   496 00:018B: 20 xx xx                     jsr     TxCRLF
   497 00:018E: A9 24                        lda     #'$'                    ; Print start address
   498 00:0190: 20 xx xx                     jsr     UartTx
   499 00:0193: A5 25                        lda     ADDR_S+2
   500 00:0195: 20 xx xx                     jsr     TxHex2
   501 00:0198: A9 3A                        lda     #':'
   502 00:019A: 20 xx xx                     jsr     UartTx
   503 00:019D: A5 24                        lda     ADDR_S+1
   504 00:019F: 20 xx xx                     jsr     TxHex2
   505 00:01A2: A5 23                        lda     ADDR_S+0
   506 00:01A4: 20 xx xx                     jsr     TxHex2
   507                        
  Sat Jan 23 2016 12:08                                                                                                    Page 14


   508 00:01A7: A9 2D                        lda     #'-'
   509 00:01A9: 20 xx xx                     jsr     UartTx
   510                        
   511                        HuntEnd:
   512 00:01AC: 18                           clc                             ; Try the next block
   513 00:01AD: A5 24                        lda     ADDR_S+1
   514 00:01AF: 69 10                        adc     #$10
   515 00:01B1: 85 24                        sta     ADDR_S+1
   516 00:01B3: 90 04                        bcc     HuntNext
   517 00:01B5: E6 25                        inc     ADDR_S+2
   518 00:01B7: F0 32                        beq     HuntDone
   519                        
   520                        HuntNext
   521 00:01B9: A7 23                        lda     [ADDR_S]                ; Is byte is writeable?
   522 00:01BB: 49 FF                        eor     #$ff
   523 00:01BD: 87 23                        sta     [ADDR_S]
   524 00:01BF: EA                           nop
   525 00:01C0: EA                           nop
   526 00:01C1: C7 23                        cmp     [ADDR_S]
   527 00:01C3: F0 E7                        beq     HuntEnd                 ; Yes, keep looking
   528                        
   529 00:01C5: A9 24                        lda     #'$'                    ; Print end address
   530 00:01C7: 20 xx xx                     jsr     UartTx
   531 00:01CA: 38                           sec
   532 00:01CB: A5 23                        lda     ADDR_S+0
   533 00:01CD: E9 01                        sbc     #1
   534 00:01CF: 48                           pha
   535 00:01D0: A5 24                        lda     ADDR_S+1
   536 00:01D2: E9 00                        sbc     #0
   537 00:01D4: 48                           pha
   538 00:01D5: A5 25                        lda     ADDR_S+2
   539 00:01D7: E9 00                        sbc     #0
   540 00:01D9: 20 xx xx                     jsr     TxHex2
   541 00:01DC: A9 3A                        lda     #':'
   542 00:01DE: 20 xx xx                     jsr     UartTx
   543 00:01E1: 68                           pla
   544 00:01E2: 20 xx xx                     jsr     TxHex2
   545 00:01E5: 68                           pla
   546 00:01E6: 20 xx xx                     jsr     TxHex2
   547 00:01E9: 80 84                        bra     HuntStart
   548                        
   549                        HuntDone:
   550 00:01EB: A9 24                        lda     #'$'                    ; Print $ff:ffff
   551 00:01ED: 20 xx xx                     jsr     UartTx
   552 00:01F0: A9 FF                        lda     #$ff
   553 00:01F2: 48                           pha
   554 00:01F3: 48                           pha
   555 00:01F4: 20 xx xx                     jsr     TxHex2
   556 00:01F7: A9 3A                        lda     #':'
   557 00:01F9: 20 xx xx                     jsr     UartTx
   558 00:01FC: 68                           pla
   559 00:01FD: 20 xx xx                     jsr     TxHex2
   560 00:0200: 68                           pla
   561 00:0201: 20 xx xx                     jsr     TxHex2
   562 00:0204: 4C xx xx                     jmp     NewCommand
   563                        
   564                        NotHunt:
   565                        
  Sat Jan 23 2016 12:08                                                                                                    Page 15


   566                        ;===============================================================================
   567                        ; M - Display Memory
   568                        ;-------------------------------------------------------------------------------
   569                        
   570 00:0207: C9 4D                        cmp     #'M'                    ; Memory display?
   571 00:0209: D0 70                        bne     NotMemoryDisplay
   572                        
   573 00:020B: A2 23                        ldx     #ADDR_S                 ; Parse start address
   574 00:020D: 20 xx xx                     jsr     GetAddr
   575 00:0210: 90 03                        bcc     $+5
   576 00:0212: 4C xx xx                     jmp     ShowError
   577 00:0215: A2 26                        ldx     #ADDR_E                 ; Parse end address
   578 00:0217: 20 xx xx                     jsr     GetAddr
   579 00:021A: 90 03                        bcc     $+5
   580 00:021C: 4C xx xx                     jmp     ShowError
   581                        
   582                        DisplayMemory:
   583 00:021F: 20 xx xx                     jsr     TxCRLF
   584 00:0222: A5 25                        lda     ADDR_S+2                ; Show memory address
   585 00:0224: 20 xx xx                     jsr     TxHex2
   586 00:0227: A9 3A                        lda     #':'
   587 00:0229: 20 xx xx                     jsr     UartTx
   588 00:022C: A5 24                        lda     ADDR_S+1
   589 00:022E: 20 xx xx                     jsr     TxHex2
   590 00:0231: A5 23                        lda     ADDR_S+0
   591 00:0233: 20 xx xx                     jsr     TxHex2
   592                        
   593 00:0236: A0 00                        ldy     #0                      ; Show sixteen bytes of data
   594 00:0238: 20 xx xx     ByteLoop:       jsr     TxSpace
   595 00:023B: B7 23                        lda     [ADDR_S],y
   596 00:023D: 20 xx xx                     jsr     TxHex2
   597 00:0240: C8                           iny
   598 00:0241: C0 10                        cpy     #16
   599 00:0243: D0 F3                        bne     ByteLoop
   600                        
   601 00:0245: 20 xx xx                     jsr     TxSpace
   602 00:0248: A9 7C                        lda     #'|'
   603 00:024A: 20 xx xx                     jsr     UartTx
   604 00:024D: A0 00                        ldy     #0                      ; Show sixteen characters
   605 00:024F: B7 23        CharLoop:       lda     [ADDR_S],Y
   606 00:0251: 20 xx xx                     jsr     IsPrintable
   607 00:0254: B0 02                        bcs     $+4
   608 00:0256: A9 2E                        lda     #'.'
   609 00:0258: 20 xx xx                     jsr     UartTx
   610 00:025B: C8                           iny
   611 00:025C: C0 10                        cpy     #16
   612 00:025E: D0 EF                        bne     CharLoop
   613 00:0260: A9 7C                        lda     #'|'
   614 00:0262: 20 xx xx                     jsr     UartTx
   615                        
   616 00:0265: 18                           clc                             ; Bump the display address
   617 00:0266: 98                           tya
   618 00:0267: 65 23                        adc     ADDR_S+0
   619 00:0269: 85 23                        sta     ADDR_S+0
   620 00:026B: 90 02                        bcc     $+4
   621 00:026D: E6 24                        inc     ADDR_S+1
   622                        
   623 00:026F: 38                           sec                             ; Exceeded the end address?
  Sat Jan 23 2016 12:08                                                                                                    Page 16


   624 00:0270: E5 26                        sbc     ADDR_E+0
   625 00:0272: A5 24                        lda     ADDR_S+1
   626 00:0274: E5 27                        sbc     ADDR_E+1
   627 00:0276: 30 A7                        bmi     DisplayMemory           ; No, show more
   628                        
   629 00:0278: 4C xx xx                     jmp     NewCommand
   630                        NotMemoryDisplay:
   631                        
   632                        ;===============================================================================
   633                        ; R - Select ROM Bank
   634                        ;-------------------------------------------------------------------------------
   635                        
   636 00:027B: C9 52                        cmp     #'R'                    ; ROM Bank?
   637 00:027D: D0 16                        bne     NotROMBank              ; No
   638                        
   639 00:027F: 20 xx xx                     jsr     SkipSpaces              ; Find first argument
   640 00:0282: 90 03                        bcc     $+5                     ; Success?
   641 00:0284: 4C xx xx     BankFail:       jmp     ShowError               ; No
   642                        
   643 00:0287: C9 30                        cmp     #'0'                    ; Check bank is 0..3
   644 00:0289: 90 F9                        bcc     BankFail
   645 00:028B: C9 34                        cmp     #'3'+1
   646 00:028D: B0 F5                        bcs     BankFail
   647                        
   648 00:028F: 20 xx xx                     jsr     RomSelect               ; Switch ROM banks
   649 00:0292: 4C xx xx                     jmp     NewCommand              ; Done
   650                        NotROMBank:
   651                        
   652                        ;===============================================================================
   653                        ; S - S19 Record
   654                        ;-------------------------------------------------------------------------------
   655                        
   656 00:0295: C9 53                        cmp     #'S'                    ; S19?
   657 00:0297: F0 03                        beq     $+5
   658 00:0299: 4C xx xx                     jmp     NotS19
   659                        
   660 00:029C: 20 xx xx                     jsr     NextChar                ; Get record type
   661 00:029F: B0 75                        bcs     S19Fail
   662 00:02A1: C9 31                        cmp     #'1'                    ; Only process type 1
   663 00:02A3: D0 6E                        bne     S19Done
   664                        
   665 00:02A5: A2 26                        ldx     #ADDR_E                 ; Get byte count
   666 00:02A7: 20 xx xx                     jsr     GetByte
   667 00:02AA: B0 6A                        bcs     S19Fail
   668 00:02AC: A5 26                        lda     ADDR_E                  ; Use as initial checksum
   669 00:02AE: 85 2B                        sta     SUM
   670 00:02B0: C6 26                        dec     ADDR_E
   671 00:02B2: F0 62                        beq     S19Fail
   672                        
   673 00:02B4: A2 23                        ldx     #ADDR_S                 ; Get address
   674 00:02B6: 20 xx xx                     jsr     GetAddr
   675 00:02B9: B0 5B                        bcs     S19Fail
   676 00:02BB: A5 23                        lda     ADDR_S+0                ; Add to checksum
   677 00:02BD: 65 24                        adc     ADDR_S+1
   678 00:02BF: 18                           clc
   679 00:02C0: 65 2B                        adc     SUM
   680 00:02C2: 85 2B                        sta     SUM
   681 00:02C4: C6 26                        dec     ADDR_E
  Sat Jan 23 2016 12:08                                                                                                    Page 17


   682 00:02C6: F0 4E                        beq     S19Fail
   683 00:02C8: C6 26                        dec     ADDR_E
   684 00:02CA: F0 4A                        beq     S19Fail
   685                        
   686                        S19Load:
   687 00:02CC: A2 2C                        ldx     #TEMP                   ; Fetch a data byte
   688 00:02CE: 20 xx xx                     jsr     GetByte
   689 00:02D1: B0 43                        bcs     S19Fail
   690 00:02D3: A5 2C                        lda     TEMP
   691 00:02D5: 65 2B                        adc     SUM
   692 00:02D7: 85 2B                        sta     SUM
   693 00:02D9: C6 26                        dec     ADDR_E
   694 00:02DB: F0 39                        beq     S19Fail
   695                        
   696 00:02DD: A5 25                        lda     ADDR_S+2                ; Writing to ROM?
   697 00:02DF: D0 13                        bne     WriteS19                ; No
   698 00:02E1: 24 24                        bit     ADDR_S+1
   699 00:02E3: 10 0F                        bpl     WriteS19                ; No
   700                        
   701 00:02E5: A9 AA                        lda     #$aa                    ; Yes, unlock flash
   702 00:02E7: 8D 55 D5                     sta     $8000+$5555
   703 00:02EA: A9 55                        lda     #$55
   704 00:02EC: 8D AA AA                     sta     $8000+$2aaa
   705 00:02EF: A9 A0                        lda     #$a0                    ; Start byte write
   706 00:02F1: 8D 55 D5                     sta     $8000+$5555
   707                        WriteS19:
   708 00:02F4: A5 2C                        lda     TEMP                    ; Write the value
   709 00:02F6: 87 23                        sta     [ADDR_S]
   710                        
   711 00:02F8: E6 23                        inc     ADDR_S+0                ; Bump address by one
   712 00:02FA: D0 02                        bne     $+4
   713 00:02FC: E6 24                        inc     ADDR_S+1
   714                        
   715 00:02FE: A5 26                        lda     ADDR_E                  ; Reached checksum?
   716 00:0300: C9 01                        cmp     #1
   717 00:0302: D0 C8                        bne     S19Load
   718                        
   719 00:0304: A2 2C                        ldx     #TEMP                   ; Yes, read it
   720 00:0306: 20 xx xx                     jsr     GetByte
   721 00:0309: B0 0B                        bcs     S19Fail
   722 00:030B: A5 2C                        lda     TEMP
   723 00:030D: 65 2B                        adc     SUM
   724 00:030F: C9 FF                        cmp     #$ff                    ; Checksum correct?
   725 00:0311: D0 03                        bne     S19Fail
   726                        
   727 00:0313: 4C xx xx     S19Done:        jmp     NewCommand              ; Get
   728                        
   729                        S19Fail:
   730                                        long_i                          ; Display error message
+  730 00:0316: C2 10                        rep     #X_FLAG
+  730                                        longi   on
   731 00:0318: A2 xx xx                     ldx     #INVALID_S19
   732 00:031B: 20 xx xx                     jsr     TxStr
   733                                        longi   off
   734 00:031E: 4C xx xx                     jmp     NewCommand              ; And start over
   735                        NotS19:
   736                        
   737                        ;===============================================================================
  Sat Jan 23 2016 12:08                                                                                                    Page 18


   738                        ; W - Write memory
   739                        ;-------------------------------------------------------------------------------
   740                        
   741 00:0321: C9 57                        cmp     #'W'                    ; Write memory?
   742 00:0323: D0 58                        bne     NotWrite
   743                        
   744 00:0325: A2 23                        ldx     #ADDR_S                 ; Parse start address
   745 00:0327: 20 xx xx                     jsr     GetAddr
   746 00:032A: 90 03                        bcc     $+5
   747 00:032C: 4C xx xx                     jmp     ShowError
   748                        
   749 00:032F: 24 24                        bit     ADDR_S+1                ; Load into ROM area?
   750 00:0331: 10 03                        bpl     $+5
   751 00:0333: 20 xx xx                     jsr     CheckSafe               ; Yes, check selection
   752                        
   753 00:0336: A2 26                        ldx     #ADDR_E                 ; Parse value byte
   754 00:0338: 20 xx xx                     jsr     GetByte                 ; Is there a value?
   755 00:033B: 90 03                        bcc     $+5
   756 00:033D: 4C xx xx                     jmp     NewCommand              ; No.
   757                        
   758 00:0340: A5 25                        lda     ADDR_S+2                ; Writing to ROM?
   759 00:0342: D0 13                        bne     WriteMemory             ; No
   760 00:0344: 24 24                        bit     ADDR_S+1
   761 00:0346: 10 0F                        bpl     WriteMemory             ; No
   762                        
   763 00:0348: A9 AA                        lda     #$aa                    ; Yes, unlock flash
   764 00:034A: 8D 55 D5                     sta     $8000+$5555
   765 00:034D: A9 55                        lda     #$55
   766 00:034F: 8D AA AA                     sta     $8000+$2aaa
   767 00:0352: A9 A0                        lda     #$a0                    ; Start byte write
   768 00:0354: 8D 55 D5                     sta     $8000+$5555
   769                        WriteMemory:
   770 00:0357: A5 26                        lda     ADDR_E                  ; Write the value
   771 00:0359: 87 23                        sta     [ADDR_S]
   772                        
   773 00:035B: E6 23                        inc     ADDR_S+0                ; Bump address by one
   774 00:035D: D0 02                        bne     $+4
   775 00:035F: E6 24                        inc     ADDR_S+1
   776                        
   777 00:0361: A9 57                        lda     #'W'                    ; Build command for next byte
   778 00:0363: 20 xx xx                     jsr     StartCommand
   779 00:0366: A9 20                        lda     #' '
   780 00:0368: 20 xx xx                     jsr     BuildCommand
   781 00:036B: A5 24                        lda     ADDR_S+1                ; Add the next address
   782 00:036D: 20 xx xx                     jsr     BuildByte
   783 00:0370: A5 23                        lda     ADDR_S+0
   784 00:0372: 20 xx xx                     jsr     BuildByte
   785 00:0375: A9 20                        lda     #' '
   786 00:0377: 20 xx xx                     jsr     BuildCommand
   787 00:037A: 4C xx xx                     jmp     ShowCommand             ; And prompt for data
   788                        
   789                        NotWrite:
   790                        
   791                        ;===============================================================================
   792                        ; X - XMODEM Receive
   793                        ;-------------------------------------------------------------------------------
   794                        
   795 00:037D: C9 58                        cmp     #'X'                    ; XModem upload?
  Sat Jan 23 2016 12:08                                                                                                    Page 19


   796 00:037F: F0 03                        beq     $+5                     ; Yes.
   797 00:0381: 4C xx xx                     jmp     NotXModem
   798                        
   799 00:0384: A2 23                        ldx     #ADDR_S                 ; Parse start address
   800 00:0386: 20 xx xx                     jsr     GetAddr
   801 00:0389: 90 03                        bcc     $+5
   802 00:038B: 4C xx xx                     jmp     ShowError
   803                        
   804 00:038E: 24 24                        bit     ADDR_S+1                ; Load into ROM area?
   805 00:0390: 10 03                        bpl     $+5
   806 00:0392: 20 xx xx                     jsr     CheckSafe               ; Yes, check selection
   807                        
   808                                        long_i                          ; Display waiting message
+  808 00:0395: C2 10                        rep     #X_FLAG
+  808                                        longi   on
   809 00:0397: A2 xx xx                     ldx     #WAITING
   810 00:039A: 20 xx xx                     jsr     TxStr
   811 00:039D: 20 xx xx                     jsr     TxCRLF
   812                                        short_i
+  812 00:03A0: E2 10                        sep     #X_FLAG
+  812                                        longi   off
   813 00:03A2: 64 29                        stz     BLOCK                   ; Reset the block number
   814 00:03A4: E6 29                        inc     BLOCK
   815                        
   816                        ResetRetries:
   817 00:03A6: A9 0A                        lda     #10                     ; Reset the retry counter
   818 00:03A8: 85 2A                        sta     RETRIES
   819                        
   820                        TransferWait:
   821 00:03AA: 64 2C                        stz     TEMP+0                  ; Clear timeout counter
   822 00:03AC: 64 2D                        stz     TEMP+1
   823 00:03AE: A9 EC                        lda     #-20
   824 00:03B0: 85 2E                        sta     TEMP+2
   825                        TransferPoll:
   826 00:03B2: 20 xx xx                     jsr     UartRxTest              ; Any data yet?
   827 00:03B5: B0 20                        bcs     TransferScan
   828 00:03B7: E6 2C                        inc     TEMP+0
   829 00:03B9: D0 F7                        bne     TransferPoll
   830 00:03BB: E6 2D                        inc     TEMP+1
   831 00:03BD: D0 F3                        bne     TransferPoll
   832 00:03BF: E6 2E                        inc     TEMP+2
   833 00:03C1: D0 EF                        bne     TransferPoll
   834 00:03C3: C6 2A                        dec     RETRIES
   835 00:03C5: F0 05                        beq     TimedOut
   836 00:03C7: 20 xx xx                     jsr     SendNAK                 ; Send a NAK
   837 00:03CA: 80 DE                        bra     TransferWait
   838                        
   839                        TimedOut:
   840                                        long_i
+  840 00:03CC: C2 10                        rep     #X_FLAG
+  840                                        longi   on
   841 00:03CE: A2 xx xx                     ldx     #TIMEOUT
   842 00:03D1: 20 xx xx                     jsr     TxStr
   843                                        longi   off
   844 00:03D4: 4C xx xx                     jmp     NewCommand
   845                        
   846                        TransferScan:
   847 00:03D7: 20 xx xx                     jsr     UartRx                  ; Wait for SOH or EOT
  Sat Jan 23 2016 12:08                                                                                                    Page 20


   848 00:03DA: C9 04                        cmp     #EOT
   849 00:03DC: F0 63                        beq     TransferDone
   850 00:03DE: C9 01                        cmp     #SOH
   851 00:03E0: D0 C8                        bne     TransferWait
   852 00:03E2: 20 xx xx                     jsr     UartRx                  ; Check the block number
   853 00:03E5: C5 29                        cmp     BLOCK
   854 00:03E7: D0 52                        bne     TransferError
   855 00:03E9: 20 xx xx                     jsr     UartRx                  ; Check inverted block
   856 00:03EC: 49 FF                        eor     #$ff
   857 00:03EE: C5 29                        cmp     BLOCK
   858 00:03F0: D0 49                        bne     TransferError
   859                        
   860 00:03F2: A0 00                        ldy     #0
   861 00:03F4: 84 2B                        sty     SUM                     ; Clear the check sum
   862                        TransferBlock:
   863 00:03F6: 20 xx xx                     jsr     UartRx
   864 00:03F9: 48                           pha
   865                        
   866 00:03FA: A5 25                        lda     ADDR_S+2                ; Writing to ROM?
   867 00:03FC: D0 13                        bne     WriteByte               ; No
   868 00:03FE: 24 24                        bit     ADDR_S+1
   869 00:0400: 10 0F                        bpl     WriteByte               ; No
   870                        
   871 00:0402: A9 AA                        lda     #$aa                    ; Yes, unlock flash
   872 00:0404: 8D 55 D5                     sta     $8000+$5555
   873 00:0407: A9 55                        lda     #$55
   874 00:0409: 8D AA AA                     sta     $8000+$2aaa
   875 00:040C: A9 A0                        lda     #$a0                    ; Start byte write
   876 00:040E: 8D 55 D5                     sta     $8000+$5555
   877                        
   878                        WriteByte:
   879 00:0411: 68                           pla
   880 00:0412: 97 23                        sta     [ADDR_S],Y
   881                        
   882                        WriteWait:
   883 00:0414: D7 23                        cmp     [ADDR_S],Y              ; Wait for write
   884 00:0416: D0 FC                        bne     WriteWait
   885                        
   886 00:0418: 18                           clc                             ; Add to check sum
   887 00:0419: 65 2B                        adc     SUM
   888 00:041B: 85 2B                        sta     SUM
   889 00:041D: C8                           iny
   890 00:041E: C0 80                        cpy     #128
   891 00:0420: D0 D4                        bne     TransferBlock
   892 00:0422: 20 xx xx                     jsr     UartRx                  ; Check the check sum
   893 00:0425: C5 2B                        cmp     SUM
   894 00:0427: D0 12                        bne     TransferError           ; Failed
   895 00:0429: 18                           clc
   896 00:042A: 98                           tya
   897 00:042B: 65 23                        adc     ADDR_S+0                ; Bump address one block
   898 00:042D: 85 23                        sta     ADDR_S+0
   899 00:042F: 90 02                        bcc     $+4
   900 00:0431: E6 24                        inc     ADDR_S+1
   901                        
   902 00:0433: 20 xx xx                     jsr     SendACK                 ; Acknowledge block
   903 00:0436: E6 29                        inc     BLOCK                   ; Bump block number
   904 00:0438: 4C xx xx                     jmp     TransferWait
   905                        
  Sat Jan 23 2016 12:08                                                                                                    Page 21


   906                        TransferError;
   907 00:043B: 20 xx xx                     jsr     SendNAK                 ; Send a NAK
   908 00:043E: 4C xx xx                     jmp     TransferWait            ; And try again
   909                        
   910                        TransferDone:
   911 00:0441: 20 xx xx                     jsr     SendACK                 ; Acknowledge transmission
   912 00:0444: 4C xx xx                     jmp     NewCommand              ; Done
   913                        
   914                        SendACK:
   915 00:0447: A9 06                        lda     #ACK
   916 00:0449: 4C xx xx                     jmp     UartTx
   917                        
   918                        SendNAK:
   919 00:044C: A9 15                        lda     #NAK
   920 00:044E: 4C xx xx                     jmp     UartTx
   921                        
   922                        NotXModem:
   923                        
   924                        ;===============================================================================
   925                        ; ? - Help
   926                        ;-------------------------------------------------------------------------------
   927                        
   928 00:0451: C9 3F                        cmp     #'?'                    ; Help command?
   929 00:0453: D0 0B                        bne     NotHelp
   930                        
   931                                        long_i
+  931 00:0455: C2 10                        rep     #X_FLAG
+  931                                        longi   on
   932 00:0457: A2 xx xx                     ldx     #HELP                   ; Output help string
   933 00:045A: 20 xx xx                     jsr     TxStr
   934                                        longi   off
   935 00:045D: 4C xx xx                     jmp     NewCommand
   936                        NotHelp:
   937                        
   938                        ;-------------------------------------------------------------------------------
   939                        
   940                        ShowError:
   941                                        long_i
+  941 00:0460: C2 10                        rep     #X_FLAG
+  941                                        longi   on
   942 00:0462: A2 xx xx                     ldx     #ERROR                  ; Output error message
   943 00:0465: 20 xx xx                     jsr     TxStr
   944                                        longi   off
   945 00:0468: 4C xx xx                     jmp     NewCommand
   946                        
   947                        ;===============================================================================
   948                        ;-------------------------------------------------------------------------------
   949                        
   950                        ; Checks if an expendable ROM bank is currently selected. If the bank with the
   951                        ; WDC firmware is selected then warn and accept a new command.
   952                        
   953                        CheckSafe:
   954 00:046B: 20 xx xx                     jsr     RomCheck                ; WDC ROM selected?
   955 00:046E: F0 01                        beq     $+3
   956 00:0470: 60                           rts                             ; No, save to change
   957                        
   958 00:0471: 68                           pla                             ; Discard return address
   959 00:0472: 68                           pla
  Sat Jan 23 2016 12:08                                                                                                    Page 22


   960                                        long_i                          ; Complain about bank
+  960 00:0473: C2 10                        rep     #X_FLAG
+  960                                        longi   on
   961 00:0475: A2 xx xx                     ldx     #NOT_SAFE
   962 00:0478: 20 xx xx                     jsr     TxStr
   963                                        longi   off
   964 00:047B: 4C xx xx                     jmp     NewCommand              ; And start over
   965                        
   966                        ;===============================================================================
   967                        ; Byte and Word Parsing
   968                        ;-------------------------------------------------------------------------------
   969                        
   970                        ; Parse a hex byte from the command line and store it at the location indicated
   971                        ; by the X register.
   972                        
   973                        GetByte:
   974 00:047E: 9E 00 00                     stz     0,x                     ; Set the target address
   975 00:0481: 20 xx xx                     jsr     SkipSpaces              ; Skip to first real character
   976 00:0484: 90 01                        bcc     $+3
   977 00:0486: 60                           rts                             ; None found
   978 00:0487: 20 xx xx                     jsr     IsHexDigit              ; Must have at least one digit
   979 00:048A: 90 12                        bcc     ByteFail
   980 00:048C: 20 xx xx                     jsr     AddDigit
   981 00:048F: 20 xx xx                     jsr     NextChar
   982 00:0492: B0 08                        bcs     ByteDone
   983 00:0494: 20 xx xx                     jsr     IsHexDigit
   984 00:0497: 90 03                        bcc     ByteDone
   985 00:0499: 20 xx xx                     jsr     AddDigit
   986 00:049C: 18           ByteDone:       clc
   987 00:049D: 60                           rts
   988 00:049E: 38           ByteFail:       sec
   989 00:049F: 60                           rts
   990                        
   991                        ; Parse an address from the command line and store it at the location indicated
   992                        ; by the X register.
   993                        
   994                        GetAddr:
   995 00:04A0: 9E 00 00                     stz     0,x                     ; Set the target address
   996 00:04A3: 9E 01 00                     stz     1,x
   997 00:04A6: A5 22                        lda     BANK
   998 00:04A8: 9D 02 00                     sta     2,x
   999 00:04AB: 20 xx xx                     jsr     SkipSpaces              ; Skip to first real character
  1000 00:04AE: 90 01                        bcc     $+3
  1001 00:04B0: 60                           rts                             ; None found
  1002                        
  1003 00:04B1: 20 xx xx                     jsr     IsHexDigit              ; Must have at least one digit
  1004 00:04B4: 90 2C                        bcc     AddrFail
  1005 00:04B6: 20 xx xx                     jsr     AddDigit
  1006 00:04B9: 20 xx xx                     jsr     NextChar
  1007 00:04BC: B0 22                        bcs     AddrDone
  1008 00:04BE: 20 xx xx                     jsr     IsHexDigit
  1009 00:04C1: 90 1D                        bcc     AddrDone
  1010 00:04C3: 20 xx xx                     jsr     AddDigit
  1011 00:04C6: 20 xx xx                     jsr     NextChar
  1012 00:04C9: B0 15                        bcs     AddrDone
  1013 00:04CB: 20 xx xx                     jsr     IsHexDigit
  1014 00:04CE: 90 10                        bcc     AddrDone
  1015 00:04D0: 20 xx xx                     jsr     AddDigit
  Sat Jan 23 2016 12:08                                                                                                    Page 23


  1016 00:04D3: 20 xx xx                     jsr     NextChar
  1017 00:04D6: B0 08                        bcs     AddrDone
  1018 00:04D8: 20 xx xx                     jsr     IsHexDigit
  1019 00:04DB: 90 03                        bcc     AddrDone
  1020 00:04DD: 20 xx xx                     jsr     AddDigit
  1021 00:04E0: 18           AddrDone:       clc                             ; Carry clear got an address
  1022 00:04E1: 60                           rts
  1023 00:04E2: 38           AddrFail:       sec                             ; Carry set -- failed.
  1024 00:04E3: 60                           rts
  1025                        
  1026                        ; Add a hex digit to the 16-bit value being build at at the location indicated
  1027                        ; by X.
  1028                        
  1029                        AddDigit:
  1030 00:04E4: 38                           sec                             ; Convert ASCII to binary
  1031 00:04E5: E9 30                        sbc     #'0'
  1032 00:04E7: C9 0A                        cmp     #$0a
  1033 00:04E9: 90 02                        bcc     $+4
  1034 00:04EB: E9 07                        sbc     #7
  1035                        
  1036 00:04ED: 1E 00 00                     asl     0,x                     ; Shift up one nybble
  1037 00:04F0: 3E 01 00                     rol     1,x
  1038 00:04F3: 1E 00 00                     asl     0,x
  1039 00:04F6: 3E 01 00                     rol     1,x
  1040 00:04F9: 1E 00 00                     asl     0,x
  1041 00:04FC: 3E 01 00                     rol     1,x
  1042 00:04FF: 1E 00 00                     asl     0,x
  1043 00:0502: 3E 01 00                     rol     1,x
  1044                        
  1045 00:0505: 1D 00 00                     ora     0,x                     ; Merge in new digit
  1046 00:0508: 9D 00 00                     sta     0,x                     ; .. and save
  1047 00:050B: 60                           rts
  1048                        
  1049                        ;===============================================================================
  1050                        ; Command Line Parsing and Building
  1051                        ;-------------------------------------------------------------------------------
  1052                        
  1053                        ; Get the next character from the command buffer updating the position in X.
  1054                        ; Set the carry if the end of the buffer is reached.
  1055                        
  1056                        NextChar:
  1057 00:050C: C4 21                        cpy     BUFLEN                  ; Any characters left?
  1058 00:050E: 90 01                        bcc     $+3
  1059 00:0510: 60                           rts
  1060 00:0511: B9 00 02                     lda     BUFFER,y
  1061 00:0514: C8                           iny
  1062 00:0515: 4C xx xx                     jmp     ToUpperCase
  1063                        
  1064                        ; Skip over any spaces until a non-space character or the end of the string
  1065                        ; is reached.
  1066                        
  1067                        SkipSpaces:
  1068 00:0518: 20 xx xx                     jsr     NextChar                ; Fetch next character
  1069 00:051B: 90 01                        bcc     $+3                     ; Any left?
  1070 00:051D: 60                           rts                             ; No
  1071 00:051E: C9 20                        cmp     #' '                    ; Is it a space?
  1072 00:0520: F0 F6                        beq     SkipSpaces              ; Yes, try again
  1073 00:0522: 18                           clc
  Sat Jan 23 2016 12:08                                                                                                    Page 24


  1074 00:0523: 60                           rts                             ; Done
  1075                        
  1076                        ; Clear the buffer and the add the command character in A.
  1077                        
  1078                        StartCommand:
  1079 00:0524: 64 21                        stz     BUFLEN                  ; Clear the character count
  1080                        
  1081                        ; Append the character in A to the command being built updating the length.
  1082                        
  1083                        BuildCommand:
  1084 00:0526: A4 21                        ldy     BUFLEN
  1085 00:0528: E6 21                        inc     BUFLEN
  1086 00:052A: 99 00 02                     sta     BUFFER,y
  1087 00:052D: 60                           rts
  1088                        
  1089                        ; Convert the value in A into hex characters and append to the command buffer.
  1090                        
  1091                        BuildByte:
  1092 00:052E: 48                           pha                             ; Save the value
  1093 00:052F: 4A                           lsr     a                       ; Shift MS nybble down
  1094 00:0530: 4A                           lsr     a
  1095 00:0531: 4A                           lsr     a
  1096 00:0532: 4A                           lsr     a
  1097 00:0533: 20 xx xx                     jsr     HexToAscii              ; Convert to ASCII
  1098 00:0536: 20 xx xx                     jsr     BuildCommand            ; .. and add to command
  1099 00:0539: 68                           pla                             ; Pull LS nybble
  1100 00:053A: 20 xx xx                     jsr     HexToAscii              ; Convert to ASCII
  1101 00:053D: 4C xx xx                     jmp     BuildCommand            ; .. and add to command
  1102                        
  1103                        ;===============================================================================
  1104                        ; Character Classification
  1105                        ;-------------------------------------------------------------------------------
  1106                        
  1107                        ; If the character in MD_ACC is lower case then convert it to upper case.
  1108                        
  1109                        ToUpperCase:
  1110 00:0540: 20 xx xx                     jsr     IsLowerCase             ; Test the character
  1111 00:0543: 90 02                        bcc     $+4
  1112 00:0545: E9 20                        sbc     #32                     ; Convert lower case
  1113 00:0547: 18                           clc
  1114 00:0548: 60                           rts                             ; Done
  1115                        
  1116                        ; Determine if the character in MD_ACC is a lower case letter. Set the carry if it
  1117                        ; is, otherwise clear it.
  1118                        
  1119                                        longa   off
  1120                        IsLowerCase:
  1121 00:0549: C9 61                        cmp     #'a'                    ; Between a and z?
  1122 00:054B: 90 06                        bcc     ClearCarry
  1123 00:054D: C9 7B                        cmp     #'z'+1
  1124 00:054F: B0 02                        bcs     ClearCarry
  1125 00:0551: 38           SetCarry:       sec
  1126 00:0552: 60                           rts
  1127 00:0553: 18           ClearCarry:     clc
  1128 00:0554: 60                           rts
  1129                        
  1130                        ; Determine if the character in MD_ACC is a hex character. Set the carry if it is,
  1131                        ; otherwise clear it.
  Sat Jan 23 2016 12:08                                                                                                    Page 25


  1132                        
  1133                                        longa   off
  1134                        IsHexDigit:
  1135 00:0555: C9 30                        cmp     #'0'                    ; Between 0 and 9?
  1136 00:0557: 90 FA                        bcc     ClearCarry
  1137 00:0559: C9 3A                        cmp     #'9'+1
  1138 00:055B: 90 F4                        bcc     SetCarry
  1139 00:055D: C9 41                        cmp     #'A'                    ; Between MD_ACC and F?
  1140 00:055F: 90 F2                        bcc     ClearCarry
  1141 00:0561: C9 47                        cmp     #'F'+1
  1142 00:0563: 90 EC                        bcc     SetCarry
  1143 00:0565: 80 EC                        bra     ClearCarry
  1144                        
  1145                        ; Determine if the character in MD_ACC is a printable character. Set the carry if it
  1146                        ; is, otherwise clear it.
  1147                        
  1148                                        longa   off
  1149                        IsPrintable:
  1150 00:0567: C9 20                        cmp     #' '
  1151 00:0569: 90 E8                        bcc     ClearCarry
  1152 00:056B: C9 7F                        cmp     #DEL
  1153 00:056D: 90 E2                        bcc     SetCarry
  1154 00:056F: 80 E2                        bra     ClearCarry
  1155                        
  1156                        ;===============================================================================
  1157                        ; Display Utilities
  1158                        ;-------------------------------------------------------------------------------
  1159                        
  1160                        ; Display the value in MD_ACC as two hexadecimal digits.
  1161                        
  1162                        TxHex2:
  1163 00:0571: 48                           pha                             ; Save the original byte
  1164 00:0572: 4A                           lsr     a                       ; Shift down hi nybble
  1165 00:0573: 4A                           lsr     a
  1166 00:0574: 4A                           lsr     a
  1167 00:0575: 4A                           lsr     a
  1168 00:0576: 20 xx xx                     jsr     UartHex                 ; Display
  1169 00:0579: 68                           pla                             ; Recover data byte
  1170                        
  1171                        ; Display the LSB of the value in MD_ACC as a hexadecimal digit using decimal
  1172                        ; arithmetic to do the conversion.
  1173                        
  1174                        UartHex:
  1175 00:057A: 20 xx xx                     jsr     HexToAscii              ; Convert to ASCII
  1176 00:057D: 4C xx xx                     jmp     UartTx                  ; And display
  1177                        
  1178                        ; Convert a LSB of the value in MD_ACC to a hexadecimal digit using decimal
  1179                        ; arithmetic.
  1180                        
  1181                        HexToAscii:
  1182 00:0580: 29 0F                        and     #$0f                    ; Strip out lo nybble
  1183 00:0582: F8                           sed                             ; Convert to ASCII
  1184 00:0583: 18                           clc
  1185 00:0584: 69 90                        adc     #$90
  1186 00:0586: 69 40                        adc     #$40
  1187 00:0588: D8                           cld
  1188 00:0589: 60                           rts                             ; Done
  1189                        
  Sat Jan 23 2016 12:08                                                                                                    Page 26


  1190                        ; Display the string of characters starting a the memory location pointed to by
  1191                        ; X (16-bits).
  1192                        
  1193                                        .longa  off
  1194                                        .longi  on
  1195                        TxStr:
  1196 00:058A: BD 00 00                     lda     0,x                     ; Fetch the next character
  1197 00:058D: D0 01                        bne     $+3                     ; Return it end of string
  1198 00:058F: 60                           rts
  1199 00:0590: 20 xx xx                     jsr     UartTx                  ; Otherwise print it
  1200 00:0593: E8                           inx                             ; Bump the pointer
  1201 00:0594: 80 F4                        bra     TxStr                   ; And repeat
  1202                        
  1203                        ; Display a CR/LF control character sequence.
  1204                        
  1205                        TxCRLF:
  1206 00:0596: 20 xx xx                     jsr     TxCR                    ; Transmit a CR
  1207 00:0599: A9 0A                        lda     #LF                     ; Followed by a LF
  1208 00:059B: 4C xx xx                     jmp     UartTx
  1209                        
  1210                        TxCR:
  1211 00:059E: A9 0D                        lda     #CR                     ; Transmit a CR
  1212 00:05A0: 4C xx xx                     jmp     UartTx
  1213                        
  1214                        TxSpace:
  1215 00:05A3: A9 20                        lda     #' '                    ; Transmit a space
  1216 00:05A5: 4C xx xx                     jmp     UartTx
  1217                        
  1218                        ;===============================================================================
  1219                        ;-------------------------------------------------------------------------------
  1220                        
  1221                        ;
  1222                        
  1223                                        longa   off
  1224                                        longi   off
  1225                        TxCodeBytes:
  1226 00:05A8: A7 23                        lda     [ADDR_S]                ; Fetch the opcode
  1227 00:05AA: 20 xx xx                     jsr     OpcodeSize              ; and work out its size
  1228 00:05AD: AA                           tax
  1229 00:05AE: A0 00                        ldy     #0                      ; Clear byte count
  1230                        CodeLoop:
  1231 00:05B0: B7 23                        lda     [ADDR_S],Y              ; Fetch a byte of code
  1232 00:05B2: 20 xx xx                     jsr     TxHex2
  1233 00:05B5: 20 xx xx                     jsr     TxSpace
  1234 00:05B8: C8                           iny
  1235 00:05B9: CA                           dex
  1236 00:05BA: D0 F4                        bne     CodeLoop
  1237                        PadLoop:
  1238 00:05BC: C0 04                        cpy     #4                      ; Need to pad out?
  1239 00:05BE: D0 01                        bne     $+3
  1240 00:05C0: 60                           rts
  1241 00:05C1: 20 xx xx                     jsr     TxSpace
  1242 00:05C4: 20 xx xx                     jsr     TxSpace
  1243 00:05C7: 20 xx xx                     jsr     TxSpace
  1244 00:05CA: C8                           iny
  1245 00:05CB: 80 EF                        bra     PadLoop
  1246                        
  1247                        ;
  Sat Jan 23 2016 12:08                                                                                                    Page 27


  1248                        
  1249                                        longa   off
  1250                                        longi   off
  1251                        TxSymbolic:
  1252 00:05CD: A7 23                        lda     [ADDR_S]                ; Fetch opcode
  1253 00:05CF: 48                           pha
  1254 00:05D0: 20 xx xx                     jsr     TxOpcode
  1255 00:05D3: 68                           pla
  1256 00:05D4: 20 xx xx                     jsr     TxOperand
  1257 00:05D7: 60                           rts
  1258                        
  1259                        ;
  1260                        
  1261                                        longa   off
  1262                                        longi   off
  1263                        TxOpcode:
  1264 00:05D8: 08                           php                             ; Save register sizes
  1265 00:05D9: AA                           tax                             ; Work out the mnemonic
  1266 00:05DA: BD xx xx                     lda     OPCODES,x
  1267 00:05DD: AA                           tax
  1268                                        long_a
+ 1268 00:05DE: C2 20                        rep     #M_FLAG
+ 1268                                        longa   on
  1269 00:05E0: BD xx xx                     lda     MNEMONICS,x
  1270                        
  1271 00:05E3: 48                           pha                             ; Save last character
  1272 00:05E4: 4A                           lsr     a                       ; Shift second down
  1273 00:05E5: 4A                           lsr     a
  1274 00:05E6: 4A                           lsr     a
  1275 00:05E7: 4A                           lsr     a
  1276 00:05E8: 4A                           lsr     a
  1277 00:05E9: 48                           pha                             ; Save it
  1278 00:05EA: 4A                           lsr     a                       ; Shift first down
  1279 00:05EB: 4A                           lsr     a
  1280 00:05EC: 4A                           lsr     a
  1281 00:05ED: 4A                           lsr     a
  1282 00:05EE: 4A                           lsr     a
  1283 00:05EF: 20 xx xx                     jsr     ExpandMnem              ; Print first
  1284 00:05F2: 68                           pla
  1285 00:05F3: 20 xx xx                     jsr     ExpandMnem              ; .. second
  1286 00:05F6: 68                           pla
  1287 00:05F7: 20 xx xx                     jsr     ExpandMnem              ; .. and third
  1288 00:05FA: 28                           plp
  1289 00:05FB: 20 xx xx                     jsr     TxSpace
  1290 00:05FE: 60                           rts
  1291                        
  1292                        ExpandMnem:
  1293 00:05FF: 18                           clc
  1294 00:0600: 29 1F 00                     and     #$1f                    ; Expand letter code
  1295 00:0603: 69 40 00                     adc     #'@'
  1296 00:0606: 4C xx xx                     jmp     UartTx
  1297                        
  1298                        ;
  1299                        
  1300                                        longa   off
  1301                                        longi   off
  1302                        TxOperand:
  1303 00:0609: AA                           tax                             ; Work out addressing mode
  Sat Jan 23 2016 12:08                                                                                                    Page 28


  1304 00:060A: BD xx xx                     lda     MODES,x
  1305 00:060D: AA                           tax
  1306 00:060E: 7C xx xx                     jmp     (MODE_SHOW,x)
  1307                        
  1308                        MODE_SHOW:
  1309 00:0611: xx xx                        dw      TxAbsolute              ; a
  1310 00:0613: xx xx                        dw      TxAccumulator           ; A
  1311 00:0615: xx xx                        dw      TxAbsoluteX             ; a,x
  1312 00:0617: xx xx                        dw      TxAbsoluteY             ; a,y
  1313 00:0619: xx xx                        dw      TxLong                  ; al
  1314 00:061B: xx xx                        dw      TxLongX                 ; al,x
  1315 00:061D: xx xx                        dw      TxAbsoluteIndirect      ; (a)
  1316 00:061F: xx xx                        dw      TxAbsoluteXIndirect     ; (a,x)
  1317 00:0621: xx xx                        dw      TxDirect                ; d
  1318 00:0623: xx xx                        dw      TxStack                 ; d,s
  1319 00:0625: xx xx                        dw      TxDirectX               ; d,x
  1320 00:0627: xx xx                        dw      TxDirectY               ; d,y
  1321 00:0629: xx xx                        dw      TxDirectIndirect        ; (d)
  1322 00:062B: xx xx                        dw      TxDirectIndirectLong    ; [d]
  1323 00:062D: xx xx                        dw      TxStackIndirectY        ; (d,s),y
  1324 00:062F: xx xx                        dw      TxDirectXIndirect       ; (d,x)
  1325 00:0631: xx xx                        dw      TxDirectIndirectY       ; (d),y
  1326 00:0633: xx xx                        dw      TxDirectIndirectLongY   ; [d],y
  1327 00:0635: xx xx                        dw      TxImplied               ;
  1328 00:0637: xx xx                        dw      TxRelative              ; r
  1329 00:0639: xx xx                        dw      TxRelativeLong          ; rl
  1330 00:063B: xx xx                        dw      TxImplied               ; xyc
  1331 00:063D: xx xx                        dw      TxImmediateM            ; # (A & M)
  1332 00:063F: xx xx                        dw      TxImmediateByte         ; # (BRK/COP/WDM)
  1333 00:0641: xx xx                        dw      TxImmediateX            ; # (X or Y)
  1334                        
  1335                        
  1336                        TxAccumulator:
  1337 00:0643: A9 41                        lda     #'A'
  1338 00:0645: 4C xx xx                     jmp     UartTx
  1339                        
  1340                        TxImmediateM:
  1341 00:0648: A9 20                        lda     #M_FLAG
  1342 00:064A: 24 20                        bit     FLAGS
  1343 00:064C: F0 12                        beq     TxImmediateWord
  1344 00:064E: 80 09                        bra     TxImmediateByte
  1345                        
  1346                        TxImmediateX:
  1347 00:0650: A9 10                        lda     #X_FLAG
  1348 00:0652: 24 20                        bit     FLAGS
  1349 00:0654: F0 0A                        beq     TxImmediateWord
  1350 00:0656: 80 01                        bra     TxImmediateByte
  1351                        
  1352                        TxImplied:
  1353 00:0658: 60                           rts
  1354                        
  1355                        TxImmediateByte:
  1356 00:0659: A9 23                        lda     #'#'
  1357 00:065B: 20 xx xx                     jsr     UartTx
  1358 00:065E: 80 14                        bra     TxDirect
  1359                        
  1360                        TxImmediateWord:
  1361 00:0660: A9 23                        lda     #'#'
  Sat Jan 23 2016 12:08                                                                                                    Page 29


  1362 00:0662: 20 xx xx                     jsr     UartTx
  1363 00:0665: 80 33                        bra     TxAbsolute
  1364                        
  1365                        TxStack:
  1366 00:0667: 20 xx xx                     jsr     TxDirect
  1367 00:066A: A9 2C                        lda     #','
  1368 00:066C: 20 xx xx                     jsr     UartTx
  1369 00:066F: A9 53                        lda     #'S'
  1370 00:0671: 4C xx xx                     jmp     UartTx
  1371                        
  1372                        TxDirect:
  1373 00:0674: A9 24                        lda     #'$'
  1374 00:0676: 20 xx xx                     jsr     UartTx
  1375 00:0679: A0 01                        ldy     #1
  1376 00:067B: B7 23                        lda     [ADDR_S],Y
  1377 00:067D: 4C xx xx                     jmp     TxHex2
  1378                        
  1379                        TxDirectX:
  1380 00:0680: 20 xx xx                     jsr     TxDirect
  1381 00:0683: A9 2C        TxX:            lda     #','
  1382 00:0685: 20 xx xx                     jsr     UartTx
  1383 00:0688: A9 58                        lda     #'X'
  1384 00:068A: 4C xx xx                     jmp     UartTx
  1385                        
  1386                        TxDirectY:
  1387 00:068D: 20 xx xx                     jsr     TxDirect
  1388 00:0690: A9 2C        TxY:            lda     #','
  1389 00:0692: 20 xx xx                     jsr     UartTx
  1390 00:0695: A9 59                        lda     #'Y'
  1391 00:0697: 4C xx xx                     jmp     UartTx
  1392                        
  1393                        TxAbsolute:
  1394 00:069A: A9 24                        lda     #'$'
  1395 00:069C: 20 xx xx                     jsr     UartTx
  1396 00:069F: A0 02                        ldy     #2
  1397 00:06A1: B7 23                        lda     [ADDR_S],Y
  1398 00:06A3: 20 xx xx                     jsr     TxHex2
  1399 00:06A6: 88                           dey
  1400 00:06A7: B7 23                        lda     [ADDR_S],Y
  1401 00:06A9: 4C xx xx                     jmp     TxHex2
  1402                        
  1403                        TxAbsoluteX:
  1404 00:06AC: 20 xx xx                     jsr     TxAbsolute
  1405 00:06AF: 80 D2                        bra     TxX
  1406                        
  1407                        TxAbsoluteY:
  1408 00:06B1: 20 xx xx                     jsr     TxAbsolute
  1409 00:06B4: 80 DA                        bra     TxY
  1410                        
  1411                        TxLong:
  1412 00:06B6: A9 24                        lda     #'$'
  1413 00:06B8: 20 xx xx                     jsr     UartTx
  1414 00:06BB: A0 03                        ldy     #3
  1415 00:06BD: B7 23                        lda     [ADDR_S],Y
  1416 00:06BF: 20 xx xx                     jsr     TxHex2
  1417 00:06C2: A9 3A                        lda     #':'
  1418 00:06C4: 20 xx xx                     jsr     UartTx
  1419 00:06C7: 88                           dey
  Sat Jan 23 2016 12:08                                                                                                    Page 30


  1420 00:06C8: B7 23                        lda     [ADDR_S],Y
  1421 00:06CA: 20 xx xx                     jsr     TxHex2
  1422 00:06CD: 88                           dey
  1423 00:06CE: B7 23                        lda     [ADDR_S],Y
  1424 00:06D0: 4C xx xx                     jmp     TxHex2
  1425                        
  1426                        TxLongX:
  1427 00:06D3: 20 xx xx                     jsr     TxLong
  1428 00:06D6: 80 AB                        bra     TxX
  1429                        
  1430                        TxAbsoluteIndirect:
  1431 00:06D8: A9 28                        lda     #'('
  1432 00:06DA: 20 xx xx                     jsr     UartTx
  1433 00:06DD: 20 xx xx                     jsr     TxAbsolute
  1434 00:06E0: A9 29                        lda     #')'
  1435 00:06E2: 4C xx xx                     jmp     UartTx
  1436                        
  1437                        TxAbsoluteXIndirect:
  1438 00:06E5: A9 28                        lda     #'('
  1439 00:06E7: 20 xx xx                     jsr     UartTx
  1440 00:06EA: 20 xx xx                     jsr     TxAbsoluteX
  1441 00:06ED: A9 29                        lda     #')'
  1442 00:06EF: 4C xx xx                     jmp     UartTx
  1443                        
  1444                        TxDirectIndirect:
  1445 00:06F2: A9 28                        lda     #'('
  1446 00:06F4: 20 xx xx                     jsr     UartTx
  1447 00:06F7: 20 xx xx                     jsr     TxDirect
  1448 00:06FA: A9 29                        lda     #')'
  1449 00:06FC: 4C xx xx                     jmp     UartTx
  1450                        
  1451                        TxDirectXIndirect:
  1452 00:06FF: A9 28                        lda     #'('
  1453 00:0701: 20 xx xx                     jsr     UartTx
  1454 00:0704: 20 xx xx                     jsr     TxDirectX
  1455 00:0707: A9 29                        lda     #')'
  1456 00:0709: 4C xx xx                     jmp     UartTx
  1457                        
  1458                        TxDirectIndirectY:
  1459 00:070C: A9 28                        lda     #'('
  1460 00:070E: 20 xx xx                     jsr     UartTx
  1461 00:0711: 20 xx xx                     jsr     TxDirect
  1462 00:0714: A9 29                        lda     #')'
  1463 00:0716: 20 xx xx                     jsr     UartTx
  1464 00:0719: 4C xx xx                     jmp     TxY
  1465                        
  1466                        TxDirectIndirectLong:
  1467 00:071C: A9 5B                        lda     #'['
  1468 00:071E: 20 xx xx                     jsr     UartTx
  1469 00:0721: 20 xx xx                     jsr     TxDirect
  1470 00:0724: A9 5D                        lda     #']'
  1471 00:0726: 4C xx xx                     jmp     UartTx
  1472                        
  1473                        TxDirectIndirectLongY:
  1474 00:0729: 20 xx xx                     jsr     TxDirectIndirectLong
  1475 00:072C: 4C xx xx                     jmp     TxY
  1476                        
  1477                        TxStackIndirectY:
  Sat Jan 23 2016 12:08                                                                                                    Page 31


  1478 00:072F: A9 28                        lda     #'('
  1479 00:0731: 20 xx xx                     jsr     UartTx
  1480 00:0734: 20 xx xx                     jsr     TxStack
  1481 00:0737: A9 29                        lda     #')'
  1482 00:0739: 20 xx xx                     jsr     UartTx
  1483 00:073C: 4C xx xx                     jmp     TxY
  1484                        
  1485                        TxRelative:
  1486 00:073F: A6 24                        ldx     ADDR_S+1                ; Work out next PC
  1487 00:0741: A5 23                        lda     ADDR_S+0
  1488 00:0743: 18                           clc
  1489 00:0744: 69 02                        adc     #2
  1490 00:0746: 90 01                        bcc     $+3
  1491 00:0748: E8                           inx
  1492                        
  1493 00:0749: 48                           pha                             ; Add relative offset
  1494 00:074A: A0 01                        ldy     #1
  1495 00:074C: B7 23                        lda     [ADDR_S],y
  1496 00:074E: 10 01                        bpl     $+3
  1497 00:0750: CA                           dex
  1498 00:0751: 18                           clc
  1499 00:0752: 63 01                        adc     1,s
  1500 00:0754: 83 01                        sta     1,s
  1501 00:0756: 90 01                        bcc     $+3
  1502 00:0758: E8                           inx
  1503 00:0759: 80 15                        bra     TxAddr
  1504                        
  1505                        TxRelativeLong:
  1506 00:075B: A6 24                        ldx     ADDR_S+1                ; Work out next PC
  1507 00:075D: A5 23                        lda     ADDR_S+0
  1508 00:075F: 18                           clc
  1509 00:0760: 69 03                        adc     #3
  1510 00:0762: 90 01                        bcc     $+3
  1511 00:0764: E8                           inx
  1512                        
  1513 00:0765: 18                           clc                             ; Add relative offset
  1514 00:0766: A0 01                        ldy     #1
  1515 00:0768: 77 23                        adc     [ADDR_S],y
  1516 00:076A: 48                           pha
  1517 00:076B: C8                           iny
  1518 00:076C: 8A                           txa
  1519 00:076D: 77 23                        adc     [ADDR_S],Y
  1520 00:076F: AA                           tax
  1521                        
  1522                        TxAddr:
  1523 00:0770: A9 24                        lda     #'$'                    ; Print address
  1524 00:0772: 20 xx xx                     jsr     UartTx
  1525 00:0775: 8A                           txa
  1526 00:0776: 20 xx xx                     jsr     TxHex2
  1527 00:0779: 68                           pla
  1528 00:077A: 4C xx xx                     jmp     TxHex2
  1529                        
  1530                        ;  Returns the size of the opcode in A given the current flag settings.
  1531                        
  1532                                        longa   off
  1533                                        longi   off
  1534                        OpcodeSize:
  1535 00:077D: AA                           tax                             ; Work out addressing mode
  Sat Jan 23 2016 12:08                                                                                                    Page 32


  1536 00:077E: BD xx xx                     lda     MODES,x
  1537 00:0781: AA                           tax
  1538 00:0782: 7C xx xx                     jmp     (MODE_SIZE,x)
  1539                        
  1540                        MODE_SIZE:
  1541 00:0785: xx xx                        dw      Size3                   ; a
  1542 00:0787: xx xx                        dw      Size1                   ; A
  1543 00:0789: xx xx                        dw      Size3                   ; a,x
  1544 00:078B: xx xx                        dw      Size3                   ; a,y
  1545 00:078D: xx xx                        dw      Size4                   ; al
  1546 00:078F: xx xx                        dw      Size4                   ; al,x
  1547 00:0791: xx xx                        dw      Size3                   ; (a)
  1548 00:0793: xx xx                        dw      Size3                   ; (a,x)
  1549 00:0795: xx xx                        dw      Size2                   ; d
  1550 00:0797: xx xx                        dw      Size2                   ; d,s
  1551 00:0799: xx xx                        dw      Size2                   ; d,x
  1552 00:079B: xx xx                        dw      Size2                   ; d,y
  1553 00:079D: xx xx                        dw      Size2                   ; (d)
  1554 00:079F: xx xx                        dw      Size2                   ; [d]
  1555 00:07A1: xx xx                        dw      Size2                   ; (d,s),y
  1556 00:07A3: xx xx                        dw      Size2                   ; (d,x)
  1557 00:07A5: xx xx                        dw      Size2                   ; (d),y
  1558 00:07A7: xx xx                        dw      Size2                   ; [d],y
  1559 00:07A9: xx xx                        dw      Size1                   ;
  1560 00:07AB: xx xx                        dw      Size2                   ; r
  1561 00:07AD: xx xx                        dw      Size3                   ; rl
  1562 00:07AF: xx xx                        dw      Size3                   ; xyc
  1563 00:07B1: xx xx                        dw      TestM                   ; # (A & M)
  1564 00:07B3: xx xx                        dw      Size2                   ; # (BRK/COP/WDM)
  1565 00:07B5: xx xx                        dw      TestX                   ; # (X or Y)
  1566                        
  1567                        TestM
  1568 00:07B7: A9 20                        lda     #M_FLAG                 ; Is M bit set?
  1569 00:07B9: 25 20                        and     FLAGS
  1570 00:07BB: F0 10                        beq     Size3                   ; No, word
  1571 00:07BD: 80 0B                        bra     Size2                   ; else byte
  1572                        
  1573                        TestX
  1574 00:07BF: A9 10                        lda     #X_FLAG                 ; Is X bit set?
  1575 00:07C1: 25 20                        and     FLAGS
  1576 00:07C3: F0 08                        beq     Size3                   ; No, word
  1577 00:07C5: 80 03                        bra     Size2                   ; else byte
  1578                        
  1579 00:07C7: A9 01        Size1:          lda     #1
  1580 00:07C9: 60                           rts
  1581 00:07CA: A9 02        Size2:          lda     #2
  1582 00:07CC: 60                           rts
  1583 00:07CD: A9 03        Size3           lda     #3
  1584 00:07CF: 60                           rts
  1585 00:07D0: A9 04        Size4:          lda     #4
  1586 00:07D2: 60                           rts
  1587                        
  1588                        OPCODES:
  1589 00:07D3: 16 52 28 52                  db      OP_BRK,OP_ORA,OP_COP,OP_ORA     ; 00
  1590 00:07D7: A0 52 04 52                  db      OP_TSB,OP_ORA,OP_ASL,OP_ORA
  1591 00:07DB: 62 52 04 5E                  db      OP_PHP,OP_ORA,OP_ASL,OP_PHD
  1592 00:07DF: A0 52 04 52                  db      OP_TSB,OP_ORA,OP_ASL,OP_ORA
  1593 00:07E3: 12 52 52 52                  db      OP_BPL,OP_ORA,OP_ORA,OP_ORA     ; 10
  Sat Jan 23 2016 12:08                                                                                                    Page 33


  1594 00:07E7: 9E 52 04 52                  db      OP_TRB,OP_ORA,OP_ASL,OP_ORA
  1595 00:07EB: 1E 52 36 9A                  db      OP_CLC,OP_ORA,OP_INC,OP_TCS
  1596 00:07EF: 9E 52 04 52                  db      OP_TRB,OP_ORA,OP_ASL,OP_ORA
  1597 00:07F3: 42 02 40 02                  db      OP_JSR,OP_AND,OP_JSL,OP_AND     ; 20
  1598 00:07F7: 0C 02 76 02                  db      OP_BIT,OP_AND,OP_ROL,OP_AND
  1599 00:07FB: 6E 02 76 6C                  db      OP_PLP,OP_AND,OP_ROL,OP_PLD
  1600 00:07FF: 0C 02 76 02                  db      OP_BIT,OP_AND,OP_ROL,OP_AND
  1601 00:0803: 0E 02 02 02                  db      OP_BMI,OP_AND,OP_AND,OP_AND     ; 30
  1602 00:0807: 0C 02 76 02                  db      OP_BIT,OP_AND,OP_ROL,OP_AND
  1603 00:080B: 82 02 2E A2                  db      OP_SEC,OP_AND,OP_DEC,OP_TSC
  1604 00:080F: 0C 02 76 02                  db      OP_BIT,OP_AND,OP_ROL,OP_AND
  1605 00:0813: 7A 34 B2 34                  db      OP_RTI,OP_EOR,OP_WDM,OP_EOR     ; 40
  1606 00:0817: 4E 34 4A 34                  db      OP_MVP,OP_EOR,OP_LSR,OP_EOR
  1607 00:081B: 5A 34 4A 60                  db      OP_PHA,OP_EOR,OP_LSR,OP_PHK
  1608 00:081F: 3E 34 4A 34                  db      OP_JMP,OP_EOR,OP_LSR,OP_EOR
  1609 00:0823: 1A 34 34 34                  db      OP_BVC,OP_EOR,OP_EOR,OP_EOR     ; 50
  1610 00:0827: 4C 34 4A 34                  db      OP_MVN,OP_EOR,OP_LSR,OP_EOR
  1611 00:082B: 22 34 66 98                  db      OP_CLI,OP_EOR,OP_PHY,OP_TCD
  1612 00:082F: 3E 34 4A 34                  db      OP_JMP,OP_EOR,OP_LSR,OP_EOR
  1613 00:0833: 7E 00 58 00                  db      OP_RTS,OP_ADC,OP_PER,OP_ADC     ; 60
  1614 00:0837: 92 00 78 00                  db      OP_STZ,OP_ADC,OP_ROR,OP_ADC
  1615 00:083B: 68 00 78 7C                  db      OP_PLA,OP_ADC,OP_ROR,OP_RTL
  1616 00:083F: 3E 00 78 00                  db      OP_JMP,OP_ADC,OP_ROR,OP_ADC
  1617 00:0843: 1C 00 00 00                  db      OP_BVS,OP_ADC,OP_ADC,OP_ADC     ; 70
  1618 00:0847: 92 00 78 00                  db      OP_STZ,OP_ADC,OP_ROR,OP_ADC
  1619 00:084B: 86 00 72 9C                  db      OP_SEI,OP_ADC,OP_PLY,OP_TDC
  1620 00:084F: 3E 00 78 00                  db      OP_JMP,OP_ADC,OP_ROR,OP_ADC
  1621 00:0853: 14 8A 18 8A                  db      OP_BRA,OP_STA,OP_BRL,OP_STA     ; 80
  1622 00:0857: 90 8A 8E 8A                  db      OP_STY,OP_STA,OP_STX,OP_STA
  1623 00:085B: 32 0C A6 5C                  db      OP_DEY,OP_BIT,OP_TXA,OP_PHB
  1624 00:085F: 90 8A 8E 8A                  db      OP_STY,OP_STA,OP_STX,OP_STA
  1625 00:0863: 06 8A 8A 8A                  db      OP_BCC,OP_STA,OP_STA,OP_STA     ; 90
  1626 00:0867: 90 8A 8E 8A                  db      OP_STY,OP_STA,OP_STX,OP_STA
  1627 00:086B: AC 8A A8 AA                  db      OP_TYA,OP_STA,OP_TXS,OP_TXY
  1628 00:086F: 92 8A 92 8A                  db      OP_STZ,OP_STA,OP_STZ,OP_STA
  1629 00:0873: 48 44 46 44                  db      OP_LDY,OP_LDA,OP_LDX,OP_LDA     ; A0
  1630 00:0877: 48 44 46 44                  db      OP_LDY,OP_LDA,OP_LDX,OP_LDA
  1631 00:087B: 96 44 94 6A                  db      OP_TAY,OP_LDA,OP_TAX,OP_PLB
  1632 00:087F: 48 44 46 44                  db      OP_LDY,OP_LDA,OP_LDX,OP_LDA
  1633 00:0883: 08 44 44 48                  db      OP_BCS,OP_LDA,OP_LDA,OP_LDY     ; B0
  1634 00:0887: 44 48 46 44                  db      OP_LDA,OP_LDY,OP_LDX,OP_LDA
  1635 00:088B: 24 44 A4 AE                  db      OP_CLV,OP_LDA,OP_TSX,OP_TYX
  1636 00:088F: 48 44 46 44                  db      OP_LDY,OP_LDA,OP_LDX,OP_LDA
  1637 00:0893: 2C 26 74 26                  db      OP_CPY,OP_CMP,OP_REP,OP_CMP     ; C0
  1638 00:0897: 2C 26 2E 26                  db      OP_CPY,OP_CMP,OP_DEC,OP_CMP
  1639 00:089B: 3A 26 30 B0                  db      OP_INY,OP_CMP,OP_DEX,OP_WAI
  1640 00:089F: 2C 26 2E 26                  db      OP_CPY,OP_CMP,OP_DEC,OP_CMP
  1641 00:08A3: 10 26 26 26                  db      OP_BNE,OP_CMP,OP_CMP,OP_CMP     ; D0
  1642 00:08A7: 56 26 2E 26                  db      OP_PEI,OP_CMP,OP_DEC,OP_CMP
  1643 00:08AB: 20 26 64 8C                  db      OP_CLD,OP_CMP,OP_PHX,OP_STP
  1644 00:08AF: 3C 26 2E 26                  db      OP_JML,OP_CMP,OP_DEC,OP_CMP
  1645 00:08B3: 2A 80 88 80                  db      OP_CPX,OP_SBC,OP_SEP,OP_SBC     ; E0
  1646 00:08B7: 2A 80 36 80                  db      OP_CPX,OP_SBC,OP_INC,OP_SBC
  1647 00:08BB: 38 80 50 B4                  db      OP_INX,OP_SBC,OP_NOP,OP_XBA
  1648 00:08BF: 2A 80 36 80                  db      OP_CPX,OP_SBC,OP_INC,OP_SBC
  1649 00:08C3: 0A 80 80 80                  db      OP_BEQ,OP_SBC,OP_SBC,OP_SBC     ; F0
  1650 00:08C7: 54 80 36 80                  db      OP_PEA,OP_SBC,OP_INC,OP_SBC
  1651 00:08CB: 84 80 70 B6                  db      OP_SED,OP_SBC,OP_PLX,OP_XCE
  Sat Jan 23 2016 12:08                                                                                                    Page 34


  1652 00:08CF: 42 80 36 80                  db      OP_JSR,OP_SBC,OP_INC,OP_SBC
  1653                        
  1654                        MODES:
  1655 00:08D3: 2E 1E 2E 12                  db      MD_INT,MD_DIX,MD_INT,MD_STK     ; 00
  1656 00:08D7: 10 10 10 1A                  db      MD_DPG,MD_DPG,MD_DPG,MD_DLI
  1657 00:08DB: 24 2C 02 24                  db      MD_IMP,MD_IMM,MD_ACC,MD_IMP
  1658 00:08DF: 00 00 00 08                  db      MD_ABS,MD_ABS,MD_ABS,MD_ALG
  1659 00:08E3: 26 20 18 1C                  db      MD_REL,MD_DIY,MD_DIN,MD_SKY     ; 10
  1660 00:08E7: 10 14 14 22                  db      MD_DPG,MD_DPX,MD_DPX,MD_DLY
  1661 00:08EB: 24 06 02 24                  db      MD_IMP,MD_ABY,MD_ACC,MD_IMP
  1662 00:08EF: 00 04 04 0A                  db      MD_ABS,MD_ABX,MD_ABX,MD_ALX
  1663 00:08F3: 00 1E 08 12                  db      MD_ABS,MD_DIX,MD_ALG,MD_STK     ; 20
  1664 00:08F7: 10 10 10 1A                  db      MD_DPG,MD_DPG,MD_DPG,MD_DLI
  1665 00:08FB: 24 2C 02 24                  db      MD_IMP,MD_IMM,MD_ACC,MD_IMP
  1666 00:08FF: 00 00 00 08                  db      MD_ABS,MD_ABS,MD_ABS,MD_ALG
  1667 00:0903: 26 20 18 1C                  db      MD_REL,MD_DIY,MD_DIN,MD_SKY     ; 30
  1668 00:0907: 14 14 14 22                  db      MD_DPX,MD_DPX,MD_DPX,MD_DLY
  1669 00:090B: 24 06 02 24                  db      MD_IMP,MD_ABY,MD_ACC,MD_IMP
  1670 00:090F: 04 04 04 0A                  db      MD_ABX,MD_ABX,MD_ABX,MD_ALX
  1671 00:0913: 24 1E 2E 12                  db      MD_IMP,MD_DIX,MD_INT,MD_STK     ; 40
  1672 00:0917: 2A 10 10 1A                  db      MD_MOV,MD_DPG,MD_DPG,MD_DLI
  1673 00:091B: 24 2C 02 24                  db      MD_IMP,MD_IMM,MD_ACC,MD_IMP
  1674 00:091F: 00 00 00 08                  db      MD_ABS,MD_ABS,MD_ABS,MD_ALG
  1675 00:0923: 26 20 18 1C                  db      MD_REL,MD_DIY,MD_DIN,MD_SKY     ; 50
  1676 00:0927: 2A 14 14 22                  db      MD_MOV,MD_DPX,MD_DPX,MD_DLY
  1677 00:092B: 24 06 24 24                  db      MD_IMP,MD_ABY,MD_IMP,MD_IMP
  1678 00:092F: 08 04 04 0A                  db      MD_ALG,MD_ABX,MD_ABX,MD_ALX
  1679 00:0933: 24 1E 24 12                  db      MD_IMP,MD_DIX,MD_IMP,MD_STK     ; 60
  1680 00:0937: 10 10 10 1A                  db      MD_DPG,MD_DPG,MD_DPG,MD_DLI
  1681 00:093B: 24 2C 02 24                  db      MD_IMP,MD_IMM,MD_ACC,MD_IMP
  1682 00:093F: 0C 00 00 08                  db      MD_AIN,MD_ABS,MD_ABS,MD_ALG
  1683 00:0943: 26 20 18 1C                  db      MD_REL,MD_DIY,MD_DIN,MD_SKY     ; 70
  1684 00:0947: 14 14 14 22                  db      MD_DPX,MD_DPX,MD_DPX,MD_DLY
  1685 00:094B: 24 06 24 24                  db      MD_IMP,MD_ABY,MD_IMP,MD_IMP
  1686 00:094F: 0E 04 04 0A                  db      MD_AIX,MD_ABX,MD_ABX,MD_ALX
  1687 00:0953: 26 1E 28 12                  db      MD_REL,MD_DIX,MD_RLG,MD_STK     ; 80
  1688 00:0957: 10 10 10 1A                  db      MD_DPG,MD_DPG,MD_DPG,MD_DLI
  1689 00:095B: 24 2C 24 24                  db      MD_IMP,MD_IMM,MD_IMP,MD_IMP
  1690 00:095F: 00 00 00 08                  db      MD_ABS,MD_ABS,MD_ABS,MD_ALG
  1691 00:0963: 26 20 18 1C                  db      MD_REL,MD_DIY,MD_DIN,MD_SKY     ; 90
  1692 00:0967: 14 14 16 22                  db      MD_DPX,MD_DPX,MD_DPY,MD_DLY
  1693 00:096B: 24 06 24 24                  db      MD_IMP,MD_ABY,MD_IMP,MD_IMP
  1694 00:096F: 00 04 04 0A                  db      MD_ABS,MD_ABX,MD_ABX,MD_ALX
  1695 00:0973: 30 1E 30 12                  db      MD_IMX,MD_DIX,MD_IMX,MD_STK     ; A0
  1696 00:0977: 10 10 10 1A                  db      MD_DPG,MD_DPG,MD_DPG,MD_DLI
  1697 00:097B: 24 2C 24 24                  db      MD_IMP,MD_IMM,MD_IMP,MD_IMP
  1698 00:097F: 00 00 00 08                  db      MD_ABS,MD_ABS,MD_ABS,MD_ALG
  1699 00:0983: 26 20 18 1C                  db      MD_REL,MD_DIY,MD_DIN,MD_SKY     ; B0
  1700 00:0987: 14 14 16 22                  db      MD_DPX,MD_DPX,MD_DPY,MD_DLY
  1701 00:098B: 24 06 24 24                  db      MD_IMP,MD_ABY,MD_IMP,MD_IMP
  1702 00:098F: 04 04 06 0A                  db      MD_ABX,MD_ABX,MD_ABY,MD_ALX
  1703 00:0993: 30 1E 2E 12                  db      MD_IMX,MD_DIX,MD_INT,MD_STK     ; C0
  1704 00:0997: 10 10 10 1A                  db      MD_DPG,MD_DPG,MD_DPG,MD_DLI
  1705 00:099B: 24 2C 24 24                  db      MD_IMP,MD_IMM,MD_IMP,MD_IMP
  1706 00:099F: 00 00 00 08                  db      MD_ABS,MD_ABS,MD_ABS,MD_ALG
  1707 00:09A3: 26 20 18 1C                  db      MD_REL,MD_DIY,MD_DIN,MD_SKY     ; D0
  1708 00:09A7: 24 14 14 22                  db      MD_IMP,MD_DPX,MD_DPX,MD_DLY
  1709 00:09AB: 24 06 24 24                  db      MD_IMP,MD_ABY,MD_IMP,MD_IMP
  Sat Jan 23 2016 12:08                                                                                                    Page 35


  1710 00:09AF: 0C 04 04 0A                  db      MD_AIN,MD_ABX,MD_ABX,MD_ALX
  1711 00:09B3: 30 1E 2E 12                  db      MD_IMX,MD_DIX,MD_INT,MD_STK     ; E0
  1712 00:09B7: 10 10 10 1A                  db      MD_DPG,MD_DPG,MD_DPG,MD_DLI
  1713 00:09BB: 24 2C 24 24                  db      MD_IMP,MD_IMM,MD_IMP,MD_IMP
  1714 00:09BF: 00 00 00 08                  db      MD_ABS,MD_ABS,MD_ABS,MD_ALG
  1715 00:09C3: 26 20 18 1C                  db      MD_REL,MD_DIY,MD_DIN,MD_SKY     ; F0
  1716 00:09C7: 24 14 14 22                  db      MD_IMP,MD_DPX,MD_DPX,MD_DLY
  1717 00:09CB: 24 06 24 24                  db      MD_IMP,MD_ABY,MD_IMP,MD_IMP
  1718 00:09CF: 0E 04 04 0A                  db      MD_AIX,MD_ABX,MD_ABX,MD_ALX
  1719                        
  1720                        MNEMONICS:
  1721                                        MNEM    'A','D','C'
+ 1721 00:09D3: 83 04                        dw      (((('A'-'@')<<5)|('D'-'@'))<<5)|('C'-'@')
  1722                                        MNEM    'A','N','D'
+ 1722 00:09D5: C4 05                        dw      (((('A'-'@')<<5)|('N'-'@'))<<5)|('D'-'@')
  1723                                        MNEM    'A','S','L'
+ 1723 00:09D7: 6C 06                        dw      (((('A'-'@')<<5)|('S'-'@'))<<5)|('L'-'@')
  1724                                        MNEM    'B','C','C'
+ 1724 00:09D9: 63 08                        dw      (((('B'-'@')<<5)|('C'-'@'))<<5)|('C'-'@')
  1725                                        MNEM    'B','C','S'
+ 1725 00:09DB: 73 08                        dw      (((('B'-'@')<<5)|('C'-'@'))<<5)|('S'-'@')
  1726                                        MNEM    'B','E','Q'
+ 1726 00:09DD: B1 08                        dw      (((('B'-'@')<<5)|('E'-'@'))<<5)|('Q'-'@')
  1727                                        MNEM    'B','I','T'
+ 1727 00:09DF: 34 09                        dw      (((('B'-'@')<<5)|('I'-'@'))<<5)|('T'-'@')
  1728                                        MNEM    'B','M','I'
+ 1728 00:09E1: A9 09                        dw      (((('B'-'@')<<5)|('M'-'@'))<<5)|('I'-'@')
  1729                                        MNEM    'B','N','E'
+ 1729 00:09E3: C5 09                        dw      (((('B'-'@')<<5)|('N'-'@'))<<5)|('E'-'@')
  1730                                        MNEM    'B','P','L'
+ 1730 00:09E5: 0C 0A                        dw      (((('B'-'@')<<5)|('P'-'@'))<<5)|('L'-'@')
  1731                                        MNEM    'B','R','A'
+ 1731 00:09E7: 41 0A                        dw      (((('B'-'@')<<5)|('R'-'@'))<<5)|('A'-'@')
  1732                                        MNEM    'B','R','K'
+ 1732 00:09E9: 4B 0A                        dw      (((('B'-'@')<<5)|('R'-'@'))<<5)|('K'-'@')
  1733                                        MNEM    'B','R','L'
+ 1733 00:09EB: 4C 0A                        dw      (((('B'-'@')<<5)|('R'-'@'))<<5)|('L'-'@')
  1734                                        MNEM    'B','V','C'
+ 1734 00:09ED: C3 0A                        dw      (((('B'-'@')<<5)|('V'-'@'))<<5)|('C'-'@')
  1735                                        MNEM    'B','V','S'
+ 1735 00:09EF: D3 0A                        dw      (((('B'-'@')<<5)|('V'-'@'))<<5)|('S'-'@')
  1736                                        MNEM    'C','L','C'
+ 1736 00:09F1: 83 0D                        dw      (((('C'-'@')<<5)|('L'-'@'))<<5)|('C'-'@')
  1737                                        MNEM    'C','L','D'
+ 1737 00:09F3: 84 0D                        dw      (((('C'-'@')<<5)|('L'-'@'))<<5)|('D'-'@')
  1738                                        MNEM    'C','L','I'
+ 1738 00:09F5: 89 0D                        dw      (((('C'-'@')<<5)|('L'-'@'))<<5)|('I'-'@')
  1739                                        MNEM    'C','L','V'
+ 1739 00:09F7: 96 0D                        dw      (((('C'-'@')<<5)|('L'-'@'))<<5)|('V'-'@')
  1740                                        MNEM    'C','M','P'
+ 1740 00:09F9: B0 0D                        dw      (((('C'-'@')<<5)|('M'-'@'))<<5)|('P'-'@')
  1741                                        MNEM    'C','O','P'
+ 1741 00:09FB: F0 0D                        dw      (((('C'-'@')<<5)|('O'-'@'))<<5)|('P'-'@')
  1742                                        MNEM    'C','P','X'
+ 1742 00:09FD: 18 0E                        dw      (((('C'-'@')<<5)|('P'-'@'))<<5)|('X'-'@')
  1743                                        MNEM    'C','P','Y'
+ 1743 00:09FF: 19 0E                        dw      (((('C'-'@')<<5)|('P'-'@'))<<5)|('Y'-'@')
  1744                                        MNEM    'D','E','C'
  Sat Jan 23 2016 12:08                                                                                                    Page 36


+ 1744 00:0A01: A3 10                        dw      (((('D'-'@')<<5)|('E'-'@'))<<5)|('C'-'@')
  1745                                        MNEM    'D','E','X'
+ 1745 00:0A03: B8 10                        dw      (((('D'-'@')<<5)|('E'-'@'))<<5)|('X'-'@')
  1746                                        MNEM    'D','E','Y'
+ 1746 00:0A05: B9 10                        dw      (((('D'-'@')<<5)|('E'-'@'))<<5)|('Y'-'@')
  1747                                        MNEM    'E','O','R'
+ 1747 00:0A07: F2 15                        dw      (((('E'-'@')<<5)|('O'-'@'))<<5)|('R'-'@')
  1748                                        MNEM    'I','N','C'
+ 1748 00:0A09: C3 25                        dw      (((('I'-'@')<<5)|('N'-'@'))<<5)|('C'-'@')
  1749                                        MNEM    'I','N','X'
+ 1749 00:0A0B: D8 25                        dw      (((('I'-'@')<<5)|('N'-'@'))<<5)|('X'-'@')
  1750                                        MNEM    'I','N','Y'
+ 1750 00:0A0D: D9 25                        dw      (((('I'-'@')<<5)|('N'-'@'))<<5)|('Y'-'@')
  1751                                        MNEM    'J','M','L'
+ 1751 00:0A0F: AC 29                        dw      (((('J'-'@')<<5)|('M'-'@'))<<5)|('L'-'@')
  1752                                        MNEM    'J','M','P'
+ 1752 00:0A11: B0 29                        dw      (((('J'-'@')<<5)|('M'-'@'))<<5)|('P'-'@')
  1753                                        MNEM    'J','S','L'
+ 1753 00:0A13: 6C 2A                        dw      (((('J'-'@')<<5)|('S'-'@'))<<5)|('L'-'@')
  1754                                        MNEM    'J','S','R'
+ 1754 00:0A15: 72 2A                        dw      (((('J'-'@')<<5)|('S'-'@'))<<5)|('R'-'@')
  1755                                        MNEM    'L','D','A'
+ 1755 00:0A17: 81 30                        dw      (((('L'-'@')<<5)|('D'-'@'))<<5)|('A'-'@')
  1756                                        MNEM    'L','D','X'
+ 1756 00:0A19: 98 30                        dw      (((('L'-'@')<<5)|('D'-'@'))<<5)|('X'-'@')
  1757                                        MNEM    'L','D','Y'
+ 1757 00:0A1B: 99 30                        dw      (((('L'-'@')<<5)|('D'-'@'))<<5)|('Y'-'@')
  1758                                        MNEM    'L','S','R'
+ 1758 00:0A1D: 72 32                        dw      (((('L'-'@')<<5)|('S'-'@'))<<5)|('R'-'@')
  1759                                        MNEM    'M','V','N'
+ 1759 00:0A1F: CE 36                        dw      (((('M'-'@')<<5)|('V'-'@'))<<5)|('N'-'@')
  1760                                        MNEM    'M','V','P'
+ 1760 00:0A21: D0 36                        dw      (((('M'-'@')<<5)|('V'-'@'))<<5)|('P'-'@')
  1761                                        MNEM    'N','O','P'
+ 1761 00:0A23: F0 39                        dw      (((('N'-'@')<<5)|('O'-'@'))<<5)|('P'-'@')
  1762                                        MNEM    'O','R','A'
+ 1762 00:0A25: 41 3E                        dw      (((('O'-'@')<<5)|('R'-'@'))<<5)|('A'-'@')
  1763                                        MNEM    'P','E','A'
+ 1763 00:0A27: A1 40                        dw      (((('P'-'@')<<5)|('E'-'@'))<<5)|('A'-'@')
  1764                                        MNEM    'P','E','I'
+ 1764 00:0A29: A9 40                        dw      (((('P'-'@')<<5)|('E'-'@'))<<5)|('I'-'@')
  1765                                        MNEM    'P','E','R'
+ 1765 00:0A2B: B2 40                        dw      (((('P'-'@')<<5)|('E'-'@'))<<5)|('R'-'@')
  1766                                        MNEM    'P','H','A'
+ 1766 00:0A2D: 01 41                        dw      (((('P'-'@')<<5)|('H'-'@'))<<5)|('A'-'@')
  1767                                        MNEM    'P','H','B'
+ 1767 00:0A2F: 02 41                        dw      (((('P'-'@')<<5)|('H'-'@'))<<5)|('B'-'@')
  1768                                        MNEM    'P','H','D'
+ 1768 00:0A31: 04 41                        dw      (((('P'-'@')<<5)|('H'-'@'))<<5)|('D'-'@')
  1769                                        MNEM    'P','H','K'
+ 1769 00:0A33: 0B 41                        dw      (((('P'-'@')<<5)|('H'-'@'))<<5)|('K'-'@')
  1770                                        MNEM    'P','H','P'
+ 1770 00:0A35: 10 41                        dw      (((('P'-'@')<<5)|('H'-'@'))<<5)|('P'-'@')
  1771                                        MNEM    'P','H','X'
+ 1771 00:0A37: 18 41                        dw      (((('P'-'@')<<5)|('H'-'@'))<<5)|('X'-'@')
  1772                                        MNEM    'P','H','Y'
+ 1772 00:0A39: 19 41                        dw      (((('P'-'@')<<5)|('H'-'@'))<<5)|('Y'-'@')
  1773                                        MNEM    'P','L','A'
  Sat Jan 23 2016 12:08                                                                                                    Page 37


+ 1773 00:0A3B: 81 41                        dw      (((('P'-'@')<<5)|('L'-'@'))<<5)|('A'-'@')
  1774                                        MNEM    'P','L','B'
+ 1774 00:0A3D: 82 41                        dw      (((('P'-'@')<<5)|('L'-'@'))<<5)|('B'-'@')
  1775                                        MNEM    'P','L','D'
+ 1775 00:0A3F: 84 41                        dw      (((('P'-'@')<<5)|('L'-'@'))<<5)|('D'-'@')
  1776                                        MNEM    'P','L','P'
+ 1776 00:0A41: 90 41                        dw      (((('P'-'@')<<5)|('L'-'@'))<<5)|('P'-'@')
  1777                                        MNEM    'P','L','X'
+ 1777 00:0A43: 98 41                        dw      (((('P'-'@')<<5)|('L'-'@'))<<5)|('X'-'@')
  1778                                        MNEM    'P','L','Y'
+ 1778 00:0A45: 99 41                        dw      (((('P'-'@')<<5)|('L'-'@'))<<5)|('Y'-'@')
  1779                                        MNEM    'R','E','P'
+ 1779 00:0A47: B0 48                        dw      (((('R'-'@')<<5)|('E'-'@'))<<5)|('P'-'@')
  1780                                        MNEM    'R','O','L'
+ 1780 00:0A49: EC 49                        dw      (((('R'-'@')<<5)|('O'-'@'))<<5)|('L'-'@')
  1781                                        MNEM    'R','O','R'
+ 1781 00:0A4B: F2 49                        dw      (((('R'-'@')<<5)|('O'-'@'))<<5)|('R'-'@')
  1782                                        MNEM    'R','T','I'
+ 1782 00:0A4D: 89 4A                        dw      (((('R'-'@')<<5)|('T'-'@'))<<5)|('I'-'@')
  1783                                        MNEM    'R','T','L'
+ 1783 00:0A4F: 8C 4A                        dw      (((('R'-'@')<<5)|('T'-'@'))<<5)|('L'-'@')
  1784                                        MNEM    'R','T','S'
+ 1784 00:0A51: 93 4A                        dw      (((('R'-'@')<<5)|('T'-'@'))<<5)|('S'-'@')
  1785                                        MNEM    'S','B','C'
+ 1785 00:0A53: 43 4C                        dw      (((('S'-'@')<<5)|('B'-'@'))<<5)|('C'-'@')
  1786                                        MNEM    'S','E','C'
+ 1786 00:0A55: A3 4C                        dw      (((('S'-'@')<<5)|('E'-'@'))<<5)|('C'-'@')
  1787                                        MNEM    'S','E','D'
+ 1787 00:0A57: A4 4C                        dw      (((('S'-'@')<<5)|('E'-'@'))<<5)|('D'-'@')
  1788                                        MNEM    'S','E','I'
+ 1788 00:0A59: A9 4C                        dw      (((('S'-'@')<<5)|('E'-'@'))<<5)|('I'-'@')
  1789                                        MNEM    'S','E','P'
+ 1789 00:0A5B: B0 4C                        dw      (((('S'-'@')<<5)|('E'-'@'))<<5)|('P'-'@')
  1790                                        MNEM    'S','T','A'
+ 1790 00:0A5D: 81 4E                        dw      (((('S'-'@')<<5)|('T'-'@'))<<5)|('A'-'@')
  1791                                        MNEM    'S','T','P'
+ 1791 00:0A5F: 90 4E                        dw      (((('S'-'@')<<5)|('T'-'@'))<<5)|('P'-'@')
  1792                                        MNEM    'S','T','X'
+ 1792 00:0A61: 98 4E                        dw      (((('S'-'@')<<5)|('T'-'@'))<<5)|('X'-'@')
  1793                                        MNEM    'S','T','Y'
+ 1793 00:0A63: 99 4E                        dw      (((('S'-'@')<<5)|('T'-'@'))<<5)|('Y'-'@')
  1794                                        MNEM    'S','T','Z'
+ 1794 00:0A65: 9A 4E                        dw      (((('S'-'@')<<5)|('T'-'@'))<<5)|('Z'-'@')
  1795                                        MNEM    'T','A','X'
+ 1795 00:0A67: 38 50                        dw      (((('T'-'@')<<5)|('A'-'@'))<<5)|('X'-'@')
  1796                                        MNEM    'T','A','Y'
+ 1796 00:0A69: 39 50                        dw      (((('T'-'@')<<5)|('A'-'@'))<<5)|('Y'-'@')
  1797                                        MNEM    'T','C','D'
+ 1797 00:0A6B: 64 50                        dw      (((('T'-'@')<<5)|('C'-'@'))<<5)|('D'-'@')
  1798                                        MNEM    'T','C','S'
+ 1798 00:0A6D: 73 50                        dw      (((('T'-'@')<<5)|('C'-'@'))<<5)|('S'-'@')
  1799                                        MNEM    'T','D','C'
+ 1799 00:0A6F: 83 50                        dw      (((('T'-'@')<<5)|('D'-'@'))<<5)|('C'-'@')
  1800                                        MNEM    'T','R','B'
+ 1800 00:0A71: 42 52                        dw      (((('T'-'@')<<5)|('R'-'@'))<<5)|('B'-'@')
  1801                                        MNEM    'T','S','B'
+ 1801 00:0A73: 62 52                        dw      (((('T'-'@')<<5)|('S'-'@'))<<5)|('B'-'@')
  1802                                        MNEM    'T','S','C'
  Sat Jan 23 2016 12:08                                                                                                    Page 38


+ 1802 00:0A75: 63 52                        dw      (((('T'-'@')<<5)|('S'-'@'))<<5)|('C'-'@')
  1803                                        MNEM    'T','S','X'
+ 1803 00:0A77: 78 52                        dw      (((('T'-'@')<<5)|('S'-'@'))<<5)|('X'-'@')
  1804                                        MNEM    'T','X','A'
+ 1804 00:0A79: 01 53                        dw      (((('T'-'@')<<5)|('X'-'@'))<<5)|('A'-'@')
  1805                                        MNEM    'T','X','S'
+ 1805 00:0A7B: 13 53                        dw      (((('T'-'@')<<5)|('X'-'@'))<<5)|('S'-'@')
  1806                                        MNEM    'T','X','Y'
+ 1806 00:0A7D: 19 53                        dw      (((('T'-'@')<<5)|('X'-'@'))<<5)|('Y'-'@')
  1807                                        MNEM    'T','Y','A'
+ 1807 00:0A7F: 21 53                        dw      (((('T'-'@')<<5)|('Y'-'@'))<<5)|('A'-'@')
  1808                                        MNEM    'T','Y','X'
+ 1808 00:0A81: 38 53                        dw      (((('T'-'@')<<5)|('Y'-'@'))<<5)|('X'-'@')
  1809                                        MNEM    'W','A','I'
+ 1809 00:0A83: 29 5C                        dw      (((('W'-'@')<<5)|('A'-'@'))<<5)|('I'-'@')
  1810                                        MNEM    'W','D','M'
+ 1810 00:0A85: 8D 5C                        dw      (((('W'-'@')<<5)|('D'-'@'))<<5)|('M'-'@')
  1811                                        MNEM    'X','B','A'
+ 1811 00:0A87: 41 60                        dw      (((('X'-'@')<<5)|('B'-'@'))<<5)|('A'-'@')
  1812                                        MNEM    'X','C','E'
+ 1812 00:0A89: 65 60                        dw      (((('X'-'@')<<5)|('C'-'@'))<<5)|('E'-'@')
  1813                        
  1814                        ;===============================================================================
  1815                        ; String Literals
  1816                        ;-------------------------------------------------------------------------------
  1817                        
  1818 00:0A8B: 0D 0A        TITLE           db      CR,LF
  1819                                        ifdef   W65C816SXB
  1820                                        db      "W65C816SXB"
  1821                                        endif
  1822                                        ifdef   W65C265SXB
  1823 00:0A8D: 57 36 35 43                  db      "W65C265SXB"
       00:0A91: 32 36 35 53 
       00:0A95: 58 42 
  1824                                        endif
  1825 00:0A97: 2D 48 61 63                  db      "-Hacker [16.01]",0
       00:0A9B: 6B 65 72 20 
       00:0A9F: 5B 31 36 2E 
       00:0AA3: 30 31 5D 00 
  1826                        
  1827 00:0AA7: 0D 0A 45 72  ERROR           db      CR,LF,"Error - Type ? for help",0
       00:0AAB: 72 6F 72 20 
       00:0AAF: 2D 20 54 79 
       00:0AB3: 70 65 20 3F 
       00:0AB7: 20 66 6F 72 
       00:0ABB: 20 68 65 6C 
       00:0ABF: 70 00 
  1828                        
  1829 00:0AC1: 0D 0A 45 72  ERASE_FAILED    db      CR,LF,"Erase failed",0
       00:0AC5: 61 73 65 20 
       00:0AC9: 66 61 69 6C 
       00:0ACD: 65 64 00 
  1830 00:0AD0: 0D 0A 57 72  WRITE_FAILED    db      CR,LF,"Write failed",0
       00:0AD4: 69 74 65 20 
       00:0AD8: 66 61 69 6C 
       00:0ADC: 65 64 00 
  1831 00:0ADF: 0D 0A 57 44  NOT_SAFE        db      CR,LF,"WDC ROM Bank Selected",0
       00:0AE3: 43 20 52 4F 
  Sat Jan 23 2016 12:08                                                                                                    Page 39


       00:0AE7: 4D 20 42 61 
       00:0AEB: 6E 6B 20 53 
       00:0AEF: 65 6C 65 63 
       00:0AF3: 74 65 64 00 
  1832 00:0AF7: 0D 0A 49 6E  INVALID_S19     db      CR,LF,"Invalid S19 record",0
       00:0AFB: 76 61 6C 69 
       00:0AFF: 64 20 53 31 
       00:0B03: 39 20 72 65 
       00:0B07: 63 6F 72 64 
       00:0B0B: 00 
  1833                        
  1834 00:0B0C: 0D 0A 57 61  WAITING         db      CR,LF,"Waiting for XMODEM transfer to start",0
       00:0B10: 69 74 69 6E 
       00:0B14: 67 20 66 6F 
       00:0B18: 72 20 58 4D 
       00:0B1C: 4F 44 45 4D 
       00:0B20: 20 74 72 61 
       00:0B24: 6E 73 66 65 
       00:0B28: 72 20 74 6F 
       00:0B2C: 20 73 74 61 
       00:0B30: 72 74 00 
  1835 00:0B33: 0D 0A 54 69  TIMEOUT         db      CR,LF,"Timeout",0
       00:0B37: 6D 65 6F 75 
       00:0B3B: 74 00 
  1836                        
  1837 00:0B3D: 0D 0A 42 20  HELP            db      CR,LF,"B bb           - Set memory bank"
       00:0B41: 62 62 20 20 
       00:0B45: 20 20 20 20 
       00:0B49: 20 20 20 20 
       00:0B4D: 20 2D 20 53 
       00:0B51: 65 74 20 6D 
       00:0B55: 65 6D 6F 72 
       00:0B59: 79 20 62 61 
       00:0B5D: 6E 6B 
  1838 00:0B5F: 0D 0A 44 20                  db      CR,LF,"D ssss eeee    - Disassemble memory in current bank"
       00:0B63: 73 73 73 73 
       00:0B67: 20 65 65 65 
       00:0B6B: 65 20 20 20 
       00:0B6F: 20 2D 20 44 
       00:0B73: 69 73 61 73 
       00:0B77: 73 65 6D 62 
       00:0B7B: 6C 65 20 6D 
       00:0B7F: 65 6D 6F 72 
       00:0B83: 79 20 69 6E 
       00:0B87: 20 63 75 72 
       00:0B8B: 72 65 6E 74 
       00:0B8F: 20 62 61 6E 
       00:0B93: 6B 
  1839 00:0B94: 0D 0A 45 20                  db      CR,LF,"E              - Erase ROM area"
       00:0B98: 20 20 20 20 
       00:0B9C: 20 20 20 20 
       00:0BA0: 20 20 20 20 
       00:0BA4: 20 2D 20 45 
       00:0BA8: 72 61 73 65 
       00:0BAC: 20 52 4F 4D 
       00:0BB0: 20 61 72 65 
       00:0BB4: 61 
  1840                                        ifdef   W65C265SXB
  Sat Jan 23 2016 12:08                                                                                                    Page 40


  1841 00:0BB5: 0D 0A 46 20                  db      CR,LF,"F 0-1          - Disable/Enable WDC ROM"
       00:0BB9: 30 2D 31 20 
       00:0BBD: 20 20 20 20 
       00:0BC1: 20 20 20 20 
       00:0BC5: 20 2D 20 44 
       00:0BC9: 69 73 61 62 
       00:0BCD: 6C 65 2F 45 
       00:0BD1: 6E 61 62 6C 
       00:0BD5: 65 20 57 44 
       00:0BD9: 43 20 52 4F 
       00:0BDD: 4D 
  1842 00:0BDE: 0D 0A 48 20                  db      CR,LF,"H              - Hunt for RAM"
       00:0BE2: 20 20 20 20 
       00:0BE6: 20 20 20 20 
       00:0BEA: 20 20 20 20 
       00:0BEE: 20 2D 20 48 
       00:0BF2: 75 6E 74 20 
       00:0BF6: 66 6F 72 20 
       00:0BFA: 52 41 4D 
  1843                                        endif
  1844 00:0BFD: 0D 0A 47 20                  db      CR,LF,"G [xxxx]       - Run from bb:xxxx or invoke reset vector"
       00:0C01: 5B 78 78 78 
       00:0C05: 78 5D 20 20 
       00:0C09: 20 20 20 20 
       00:0C0D: 20 2D 20 52 
       00:0C11: 75 6E 20 66 
       00:0C15: 72 6F 6D 20 
       00:0C19: 62 62 3A 78 
       00:0C1D: 78 78 78 20 
       00:0C21: 6F 72 20 69 
       00:0C25: 6E 76 6F 6B 
       00:0C29: 65 20 72 65 
       00:0C2D: 73 65 74 20 
       00:0C31: 76 65 63 74 
       00:0C35: 6F 72 
  1845 00:0C37: 0D 0A 4D 20                  db      CR,LF,"M ssss eeee    - Display memory in current bank"
       00:0C3B: 73 73 73 73 
       00:0C3F: 20 65 65 65 
       00:0C43: 65 20 20 20 
       00:0C47: 20 2D 20 44 
       00:0C4B: 69 73 70 6C 
       00:0C4F: 61 79 20 6D 
       00:0C53: 65 6D 6F 72 
       00:0C57: 79 20 69 6E 
       00:0C5B: 20 63 75 72 
       00:0C5F: 72 65 6E 74 
       00:0C63: 20 62 61 6E 
       00:0C67: 6B 
  1846 00:0C68: 0D 0A 52 20                  db      CR,LF,"R 0-3          - Select ROM bank 0-3"
       00:0C6C: 30 2D 33 20 
       00:0C70: 20 20 20 20 
       00:0C74: 20 20 20 20 
       00:0C78: 20 2D 20 53 
       00:0C7C: 65 6C 65 63 
       00:0C80: 74 20 52 4F 
       00:0C84: 4D 20 62 61 
       00:0C88: 6E 6B 20 30 
       00:0C8C: 2D 33 
  Sat Jan 23 2016 12:08                                                                                                    Page 41


  1847 00:0C8E: 0D 0A 53 2E                  db      CR,LF,"S...           - Process S19 record"
       00:0C92: 2E 2E 20 20 
       00:0C96: 20 20 20 20 
       00:0C9A: 20 20 20 20 
       00:0C9E: 20 2D 20 50 
       00:0CA2: 72 6F 63 65 
       00:0CA6: 73 73 20 53 
       00:0CAA: 31 39 20 72 
       00:0CAE: 65 63 6F 72 
       00:0CB2: 64 
  1848 00:0CB3: 0D 0A 57 20                  db      CR,LF,"W xxxx yy      - Set memory at xxxx to yy"
       00:0CB7: 78 78 78 78 
       00:0CBB: 20 79 79 20 
       00:0CBF: 20 20 20 20 
       00:0CC3: 20 2D 20 53 
       00:0CC7: 65 74 20 6D 
       00:0CCB: 65 6D 6F 72 
       00:0CCF: 79 20 61 74 
       00:0CD3: 20 78 78 78 
       00:0CD7: 78 20 74 6F 
       00:0CDB: 20 79 79 
  1849 00:0CDE: 0D 0A 58 20                  db      CR,LF,"X xxxx         - XMODEM receive to bb:xxxx"
       00:0CE2: 78 78 78 78 
       00:0CE6: 20 20 20 20 
       00:0CEA: 20 20 20 20 
       00:0CEE: 20 2D 20 58 
       00:0CF2: 4D 4F 44 45 
       00:0CF6: 4D 20 72 65 
       00:0CFA: 63 65 69 76 
       00:0CFE: 65 20 74 6F 
       00:0D02: 20 62 62 3A 
       00:0D06: 78 78 78 78 
  1850 00:0D0A: 00                           db      0
  1851                        
  1852                                        end


      Lines assembled: 2201
      Errors: 0
